(lp0
(lp1
I23
aI34
aI24
aI26
aI32
aI26
aI32
aI33
aI3
aI9
aI34
aI16
aI33
aI32
aI25
aI28
aI3
aI33
aI31
aI9
aI1
aI7
aI6
aI17
aI6
aI11
aI6
aI11
aI6
aI11
aI6
aI11
aI5
aI7
aI6
aI7
aI6
aI7
aI1
aI4
aa(lp2
I27
aI34
aI28
aI24
aI26
aI32
aI34
aI32
aI34
aI32
aI34
aI24
aI28
aI25
aI26
aI32
aI34
aI32
aI29
aI34
aI24
aI30
aI33
aI34
aI32
aI33
aI3
aI14
aI3
aI14
aI34
aI16
aI34
aI10
aI3
aI28
aI24
aI34
aI10
aI3
aa(lp3
I3
aI14
aI1
aI12
aI1
aI11
aI6
aI1
aI13
aI4
aI8
aI2
aI8
aI4
aI1
aI2
aI31
aI2
aI3
aI4
aI13
aI4
aI1
aI8
aI1
aI6
aI1
aI13
aI1
aI4
aI8
aI1
aI3
aI33
aI15
aI33
aI30
aI34
aI32
aI25
aa(lp4
I2
aI20
aI34
aI9
aI33
aI32
aI26
aI24
aI30
aI27
aI30
aI27
aI30
aI33
aI23
aI33
aI19
aI34
aI16
aI34
aI9
aI33
aI19
aI33
aI16
aI33
aI34
aI19
aI33
aI19
aI34
aI27
aI34
aI29
aI32
aI26
aI25
aI26
aI24
aI28
aa(lp5
I24
aI28
aI25
aI28
aI34
aI24
aI30
aI27
aI34
aI21
aI34
aI9
aI31
aI9
aI1
aI11
aI5
aI7
aI17
aI7
aI5
aI1
aI9
aI34
aI31
aI34
aI15
aI34
aI27
aI30
aI33
aI34
aI20
aI34
aI19
aI33
aI30
aI24
aI34
aI23
aa(lp6
I6
aI1
aI3
aI14
aI34
aI16
aI34
aI10
aI34
aI20
aI1
aI6
aI7
aI17
aI7
aI1
aI11
aI5
aI7
aI17
aI6
aI1
aI2
aI20
aI2
aI31
aI34
aI32
aI1
aI14
aI4
aI8
aI3
aI33
aI24
aI28
aI25
aI26
aI25
aI26
aa(lp7
I21
aI33
aI19
aI34
aI29
aI32
aI29
aI3
aI2
aI31
aI9
aI3
aI10
aI3
aI9
aI3
aI1
aI4
aI8
aI1
aI8
aI2
aI8
aI1
aI22
aI1
aI20
aI34
aI19
aI33
aI30
aI27
aI30
aI33
aI32
aI34
aI27
aI30
aI34
aI27
aa(lp8
I4
aI1
aI3
aI28
aI3
aI1
aI8
aI3
aI9
aI31
aI33
aI30
aI27
aI30
aI34
aI16
aI34
aI21
aI33
aI3
aI29
aI34
aI32
aI26
aI32
aI1
aI8
aI1
aI2
aI31
aI2
aI3
aI2
aI8
aI3
aI2
aI31
aI34
aI14
aI3
aa(lp9
I1
aI13
aI4
aI3
aI33
aI16
aI33
aI21
aI34
aI15
aI34
aI15
aI33
aI34
aI32
aI33
aI3
aI2
aI4
aI13
aI4
aI8
aI3
aI29
aI3
aI1
aI20
aI1
aI5
aI1
aI2
aI22
aI1
aI4
aI1
aI13
aI4
aI8
aI4
aI8
aa(lp10
I25
aI28
aI25
aI32
aI33
aI34
aI29
aI34
aI15
aI34
aI27
aI34
aI23
aI34
aI20
aI2
aI22
aI2
aI18
aI1
aI4
aI8
aI2
aI1
aI20
aI34
aI19
aI33
aI31
aI2
aI18
aI1
aI6
aI17
aI6
aI1
aI8
aI2
aI22
aI2
aa(lp11
I8
aI3
aI2
aI31
aI9
aI33
aI19
aI33
aI21
aI33
aI3
aI14
aI4
aI1
aI11
aI5
aI7
aI17
aI6
aI17
aI7
aI5
aI7
aI5
aI1
aI13
aI4
aI13
aI1
aI22
aI2
aI31
aI34
aI28
aI34
aI23
aI34
aI15
aI34
aI21
aa(lp12
I11
aI6
aI7
aI17
aI6
aI1
aI22
aI1
aI22
aI2
aI18
aI2
aI3
aI1
aI20
aI34
aI30
aI33
aI21
aI33
aI9
aI31
aI33
aI34
aI32
aI26
aI24
aI33
aI30
aI24
aI30
aI33
aI3
aI33
aI34
aI29
aI3
aI1
aI7
aI1
aa(lp13
I10
aI3
aI1
aI32
aI33
aI3
aI29
aI3
aI4
aI13
aI4
aI1
aI2
aI8
aI1
aI12
aI1
aI4
aI1
aI7
aI17
aI6
aI17
aI6
aI7
aI5
aI11
aI6
aI11
aI1
aI32
aI1
aI12
aI1
aI22
aI2
aI22
aI1
aI5
aI11
aa(lp14
I19
aI33
aI21
aI33
aI9
aI1
aI3
aI1
aI8
aI3
aI28
aI3
aI9
aI33
aI9
aI31
aI9
aI34
aI9
aI31
aI9
aI33
aI16
aI33
aI16
aI33
aI34
aI30
aI27
aI34
aI28
aI34
aI21
aI33
aI31
aI9
aI3
aI9
aI34
aI14
aa(lp15
I32
aI26
aI25
aI28
aI3
aI1
aI14
aI4
aI1
aI6
aI17
aI7
aI6
aI1
aI14
aI3
aI14
aI4
aI2
aI20
aI1
aI32
aI1
aI22
aI1
aI6
aI11
aI5
aI7
aI1
aI6
aI7
aI17
aI7
aI6
aI1
aI18
aI1
aI7
aI6
aa(lp16
I20
aI1
aI22
aI1
aI8
aI2
aI14
aI3
aI14
aI3
aI9
aI33
aI19
aI34
aI30
aI27
aI30
aI33
aI9
aI33
aI19
aI34
aI14
aI4
aI3
aI9
aI31
aI9
aI33
aI16
aI34
aI10
aI3
aI28
aI3
aI14
aI1
aI9
aI34
aI9
aa(lp17
I18
aI2
aI1
aI20
aI34
aI29
aI34
aI9
aI1
aI12
aI1
aI20
aI34
aI29
aI3
aI28
aI24
aI26
aI25
aI26
aI24
aI30
aI34
aI21
aI33
aI30
aI33
aI9
aI34
aI21
aI34
aI20
aI34
aI20
aI1
aI5
aI11
aI5
aI1
aI8
aa(lp18
I17
aI6
aI1
aI4
aI1
aI13
aI1
aI12
aI1
aI14
aI3
aI4
aI14
aI2
aI14
aI4
aI8
aI4
aI14
aI34
aI32
aI29
aI32
aI33
aI15
aI33
aI3
aI2
aI1
aI13
aI1
aI18
aI2
aI31
aI9
aI34
aI21
aI33
aI9
aI34
aa(lp19
I5
aI11
aI1
aI9
aI3
aI1
aI2
aI8
aI1
aI11
aI1
aI5
aI11
aI6
aI7
aI17
aI6
aI7
aI6
aI1
aI22
aI1
aI9
aI33
aI3
aI29
aI34
aI21
aI33
aI3
aI1
aI18
aI1
aI22
aI1
aI3
aI9
aI33
aI31
aI2
aa(lp20
I33
aI15
aI33
aI9
aI34
aI32
aI25
aI28
aI25
aI26
aI25
aI26
aI24
aI30
aI33
aI23
aI33
aI15
aI33
aI31
aI2
aI20
aI1
aI6
aI11
aI5
aI11
aI5
aI11
aI1
aI13
aI1
aI14
aI2
aI20
aI34
aI28
aI3
aI29
aI3
aa(lp21
I30
aI33
aI30
aI24
aI33
aI16
aI33
aI31
aI33
aI16
aI34
aI9
aI1
aI8
aI4
aI8
aI1
aI18
aI2
aI20
aI2
aI20
aI1
aI14
aI34
aI29
aI32
aI29
aI32
aI34
aI10
aI34
aI23
aI33
aI21
aI33
aI15
aI34
aI28
aI24
aa(lp22
I7
aI17
aI6
aI7
aI17
aI6
aI11
aI6
aI17
aI7
aI5
aI1
aI2
aI20
aI34
aI19
aI33
aI30
aI33
aI16
aI34
aI19
aI33
aI23
aI34
aI14
aI1
aI13
aI1
aI2
aI4
aI8
aI1
aI2
aI31
aI9
aI34
aI15
aI33
aI19
aa(lp23
I34
aI15
aI33
aI34
aI29
aI32
aI26
aI24
aI30
aI33
aI30
aI27
aI30
aI34
aI20
aI2
aI1
aI4
aI14
aI3
aI28
aI3
aI8
aI4
aI13
aI1
aI2
aI22
aI1
aI18
aI2
aI3
aI1
aI22
aI2
aI18
aI1
aI4
aI8
aI2
aa(lp24
I28
aI34
aI29
aI3
aI33
aI3
aI1
aI6
aI1
aI5
aI7
aI6
aI7
aI5
aI7
aI5
aI1
aI22
aI2
aI31
aI34
aI24
aI28
aI25
aI28
aI25
aI28
aI24
aI26
aI32
aI1
aI13
aI4
aI13
aI1
aI13
aI1
aI11
aI5
aI11
aa(lp25
I15
aI34
aI15
aI34
aI19
aI34
aI32
aI29
aI34
aI28
aI24
aI34
aI32
aI25
aI32
aI1
aI20
aI2
aI31
aI9
aI33
aI16
aI34
aI27
aI34
aI9
aI1
aI2
aI3
aI33
aI34
aI23
aI34
aI30
aI34
aI29
aI3
aI10
aI3
aI33
aa(lp26
I13
aI1
aI4
aI8
aI1
aI3
aI10
aI34
aI27
aI34
aI16
aI33
aI21
aI34
aI29
aI34
aI24
aI30
aI34
aI15
aI34
aI30
aI34
aI29
aI3
aI14
aI34
aI24
aI28
aI34
aI24
aI30
aI33
aI31
aI2
aI1
aI11
aI6
aI11
aI5
aa(lp27
I31
aI33
aI21
aI34
aI16
aI34
aI16
aI34
aI32
aI1
aI9
aI33
aI21
aI34
aI30
aI33
aI34
aI14
aI34
aI32
aI29
aI34
aI16
aI34
aI30
aI33
aI9
aI1
aI2
aI4
aI13
aI1
aI18
aI2
aI8
aI4
aI1
aI9
aI34
aI14
aa(lp28
I22
aI2
aI4
aI1
aI9
aI31
aI2
aI18
aI1
aI2
aI3
aI2
aI14
aI1
aI22
aI2
aI31
aI9
aI34
aI33
aI31
aI9
aI33
aI24
aI30
aI27
aI30
aI24
aI26
aI25
aI28
aI34
aI9
aI34
aI9
aI31
aI33
aI24
aI34
aI19
aa(lp29
I12
aI1
aI3
aI10
aI34
aI15
aI33
aI30
aI27
aI30
aI34
aI33
aI9
aI34
aI24
aI26
aI25
aI28
aI3
aI28
aI34
aI10
aI34
aI21
aI33
aI21
aI33
aI19
aI34
aI23
aI34
aI24
aI34
aI19
aI34
aI10
aI3
aI8
aI2
aI22
aa(lp30
I16
aI34
aI33
aI32
aI1
aI7
aI1
aI14
aI1
aI22
aI1
aI8
aI1
aI6
aI7
aI1
aI18
aI2
aI8
aI4
aI1
aI2
aI8
aI4
aI13
aI4
aI8
aI4
aI3
aI1
aI18
aI1
aI8
aI2
aI3
aI8
aI1
aI12
aI1
aI2
aa(lp31
I9
aI31
aI33
aI32
aI26
aI24
aI26
aI32
aI33
aI32
aI25
aI28
aI3
aI29
aI32
aI34
aI23
aI33
aI32
aI29
aI3
aI1
aI8
aI1
aI11
aI1
aI4
aI14
aI4
aI2
aI22
aI2
aI31
aI9
aI34
aI28
aI3
aI4
aI2
aI3
aa(lp32
I14
aI2
aI4
aI14
aI3
aI29
aI3
aI10
aI3
aI33
aI3
aI8
aI4
aI14
aI1
aI20
aI2
aI1
aI18
aI1
aI12
aI1
aI13
aI1
aI2
aI8
aI4
aI2
aI4
aI1
aI11
aI5
aI1
aI8
aI3
aI33
aI21
aI33
aI21
aI33
aa(lp33
I26
aI25
aI28
aI24
aI30
aI34
aI33
aI32
aI26
aI24
aI33
aI21
aI33
aI3
aI8
aI4
aI14
aI1
aI22
aI1
aI14
aI1
aI8
aI4
aI3
aI33
aI30
aI33
aI9
aI3
aI9
aI31
aI34
aI16
aI34
aI32
aI26
aI25
aI32
aI29
aa(lp34
I29
aI34
aI15
aI34
aI15
aI34
aI19
aI34
aI16
aI33
aI30
aI27
aI34
aI19
aI33
aI24
aI26
aI25
aI28
aI3
aI28
aI25
aI32
aI29
aI32
aI25
aI26
aI24
aI30
aI34
aI20
aI34
aI29
aI34
aI19
aI33
aI34
aI31
aI9
aI34
aa(lp35
I2
aI22
aI1
aI22
aI2
aI14
aI1
aI9
aI31
aI9
aI31
aI34
aI32
aI29
aI34
aI10
aI34
aI32
aI25
aI32
aI34
aI31
aI33
aI24
aI28
aI25
aI28
aI3
aI2
aI8
aI4
aI8
aI4
aI14
aI1
aI12
aI1
aI11
aI5
aI7
aa(lp36
I10
aI3
aI29
aI32
aI29
aI32
aI25
aI28
aI3
aI29
aI34
aI14
aI1
aI3
aI8
aI4
aI8
aI2
aI4
aI1
aI4
aI13
aI1
aI20
aI34
aI14
aI3
aI1
aI20
aI2
aI20
aI2
aI20
aI34
aI24
aI34
aI19
aI33
aI3
aI4
aa(lp37
I15
aI34
aI19
aI33
aI21
aI34
aI23
aI33
aI3
aI10
aI3
aI8
aI2
aI20
aI1
aI22
aI2
aI14
aI34
aI20
aI2
aI3
aI28
aI24
aI30
aI27
aI34
aI20
aI34
aI21
aI33
aI19
aI34
aI33
aI32
aI26
aI24
aI30
aI27
aI30
aa(lp38
I20
aI1
aI32
aI26
aI24
aI28
aI24
aI30
aI34
aI33
aI23
aI34
aI28
aI25
aI28
aI24
aI33
aI9
aI3
aI29
aI3
aI33
aI34
aI24
aI26
aI24
aI28
aI24
aI26
aI32
aI26
aI24
aI26
aI25
aI26
aI24
aI33
aI34
aI15
aI34
aa(lp39
I17
aI6
aI1
aI22
aI2
aI1
aI4
aI2
aI31
aI9
aI34
aI21
aI33
aI31
aI33
aI16
aI34
aI28
aI34
aI28
aI25
aI28
aI3
aI33
aI30
aI27
aI34
aI27
aI34
aI20
aI2
aI18
aI1
aI11
aI1
aI3
aI33
aI9
aI34
aI21
aa(lp40
I19
aI33
aI19
aI33
aI19
aI34
aI19
aI34
aI15
aI33
aI21
aI34
aI9
aI33
aI3
aI9
aI33
aI21
aI33
aI16
aI33
aI15
aI33
aI24
aI30
aI34
aI33
aI23
aI33
aI16
aI34
aI28
aI34
aI14
aI1
aI20
aI34
aI30
aI27
aI34
aa(lp41
I24
aI30
aI24
aI28
aI34
aI30
aI34
aI32
aI33
aI23
aI34
aI15
aI34
aI29
aI32
aI26
aI25
aI28
aI34
aI24
aI28
aI24
aI28
aI34
aI31
aI33
aI15
aI33
aI9
aI31
aI33
aI15
aI34
aI31
aI34
aI21
aI34
aI33
aI32
aI26
aa(lp42
I27
aI34
aI14
aI3
aI8
aI2
aI8
aI3
aI29
aI32
aI1
aI18
aI2
aI31
aI9
aI31
aI33
aI32
aI33
aI3
aI4
aI14
aI3
aI29
aI32
aI25
aI26
aI32
aI1
aI13
aI1
aI8
aI3
aI1
aI32
aI26
aI24
aI30
aI34
aI19
aa(lp43
I7
aI6
aI17
aI6
aI17
aI6
aI17
aI7
aI1
aI6
aI11
aI1
aI20
aI1
aI8
aI3
aI8
aI4
aI2
aI1
aI4
aI8
aI3
aI1
aI32
aI26
aI24
aI33
aI3
aI9
aI33
aI34
aI29
aI34
aI14
aI3
aI1
aI6
aI7
aI5
aa(lp44
I21
aI33
aI31
aI2
aI22
aI2
aI8
aI3
aI2
aI14
aI1
aI20
aI1
aI7
aI17
aI7
aI5
aI11
aI1
aI12
aI1
aI20
aI2
aI14
aI3
aI28
aI24
aI30
aI33
aI34
aI28
aI34
aI20
aI2
aI20
aI2
aI4
aI14
aI2
aI31
aa(lp45
I6
aI17
aI6
aI17
aI7
aI5
aI7
aI17
aI6
aI17
aI6
aI11
aI6
aI1
aI12
aI1
aI3
aI28
aI34
aI23
aI33
aI21
aI33
aI23
aI33
aI3
aI33
aI34
aI14
aI2
aI8
aI3
aI1
aI20
aI2
aI4
aI14
aI4
aI2
aI14
aa(lp46
I14
aI34
aI9
aI33
aI32
aI33
aI9
aI31
aI34
aI21
aI34
aI16
aI33
aI31
aI9
aI31
aI2
aI8
aI3
aI4
aI13
aI1
aI5
aI1
aI20
aI34
aI33
aI3
aI28
aI25
aI26
aI24
aI28
aI24
aI30
aI34
aI9
aI33
aI32
aI26
aa(lp47
I25
aI26
aI24
aI28
aI3
aI10
aI3
aI1
aI5
aI11
aI5
aI11
aI6
aI1
aI11
aI6
aI11
aI1
aI5
aI11
aI1
aI20
aI34
aI29
aI34
aI30
aI34
aI10
aI3
aI10
aI3
aI10
aI3
aI2
aI1
aI2
aI22
aI1
aI32
aI34
aa(lp48
I1
aI14
aI3
aI4
aI3
aI8
aI2
aI20
aI34
aI14
aI2
aI3
aI1
aI20
aI2
aI1
aI9
aI31
aI34
aI29
aI3
aI14
aI3
aI1
aI4
aI13
aI1
aI32
aI29
aI34
aI14
aI3
aI28
aI34
aI15
aI33
aI21
aI33
aI21
aI33
aa(lp49
I23
aI34
aI32
aI26
aI25
aI28
aI25
aI32
aI29
aI34
aI29
aI34
aI15
aI33
aI23
aI34
aI30
aI33
aI32
aI33
aI23
aI34
aI23
aI33
aI21
aI33
aI24
aI26
aI32
aI34
aI21
aI33
aI15
aI33
aI16
aI34
aI9
aI34
aI32
aI25
aa(lp50
I3
aI2
aI31
aI9
aI34
aI9
aI34
aI9
aI33
aI34
aI31
aI9
aI34
aI20
aI2
aI8
aI2
aI18
aI2
aI20
aI34
aI9
aI31
aI9
aI3
aI33
aI15
aI33
aI15
aI34
aI27
aI34
aI24
aI34
aI31
aI34
aI9
aI34
aI9
aI33
aa(lp51
I26
aI32
aI29
aI32
aI25
aI32
aI34
aI27
aI34
aI19
aI33
aI34
aI28
aI24
aI34
aI27
aI30
aI34
aI10
aI34
aI14
aI1
aI6
aI11
aI5
aI7
aI1
aI22
aI2
aI20
aI34
aI30
aI24
aI33
aI32
aI33
aI21
aI34
aI10
aI34
aa(lp52
I32
aI25
aI32
aI29
aI32
aI29
aI3
aI1
aI2
aI20
aI1
aI3
aI8
aI4
aI14
aI2
aI22
aI1
aI8
aI3
aI33
aI3
aI9
aI34
aI9
aI31
aI9
aI31
aI33
aI19
aI34
aI33
aI34
aI9
aI34
aI31
aI2
aI31
aI2
aI3
aa(lp53
I5
aI11
aI6
aI11
aI1
aI6
aI7
aI1
aI13
aI1
aI18
aI1
aI2
aI4
aI13
aI4
aI8
aI4
aI1
aI7
aI6
aI7
aI1
aI12
aI1
aI7
aI5
aI1
aI9
aI31
aI2
aI4
aI3
aI9
aI31
aI9
aI1
aI5
aI7
aI17
aa(lp54
I33
aI23
aI33
aI3
aI2
aI8
aI3
aI14
aI3
aI10
aI3
aI14
aI4
aI3
aI29
aI34
aI32
aI26
aI25
aI32
aI1
aI8
aI4
aI3
aI10
aI3
aI1
aI3
aI9
aI33
aI23
aI34
aI10
aI3
aI8
aI4
aI2
aI4
aI3
aI33
aa(lp55
I29
aI34
aI9
aI33
aI15
aI34
aI29
aI34
aI28
aI34
aI30
aI24
aI26
aI32
aI29
aI34
aI14
aI2
aI4
aI14
aI3
aI33
aI30
aI34
aI27
aI34
aI14
aI3
aI10
aI34
aI24
aI34
aI27
aI34
aI20
aI2
aI4
aI2
aI31
aI33
aa(lp56
I12
aI1
aI22
aI2
aI4
aI3
aI14
aI2
aI3
aI28
aI25
aI28
aI25
aI26
aI32
aI26
aI32
aI29
aI32
aI33
aI9
aI31
aI2
aI8
aI3
aI8
aI2
aI20
aI1
aI32
aI29
aI3
aI10
aI3
aI10
aI34
aI21
aI33
aI30
aI34
aa(lp57
I13
aI4
aI3
aI29
aI3
aI1
aI32
aI33
aI24
aI30
aI27
aI34
aI31
aI9
aI3
aI14
aI4
aI14
aI4
aI1
aI32
aI34
aI24
aI28
aI25
aI28
aI3
aI10
aI3
aI28
aI34
aI29
aI3
aI10
aI3
aI2
aI31
aI34
aI32
aI29
aa(lp58
I28
aI34
aI15
aI33
aI32
aI29
aI3
aI2
aI4
aI3
aI8
aI3
aI4
aI1
aI22
aI2
aI31
aI2
aI22
aI1
aI11
aI5
aI1
aI20
aI1
aI22
aI2
aI22
aI2
aI22
aI2
aI1
aI4
aI2
aI18
aI1
aI4
aI3
aI1
aI7
aa(lp59
I34
aI15
aI33
aI16
aI34
aI15
aI34
aI29
aI34
aI15
aI33
aI16
aI34
aI33
aI15
aI34
aI10
aI3
aI33
aI32
aI1
aI20
aI34
aI32
aI26
aI25
aI32
aI29
aI34
aI15
aI33
aI21
aI33
aI23
aI33
aI32
aI33
aI19
aI33
aI30
aa(lp60
I4
aI8
aI1
aI2
aI18
aI2
aI18
aI1
aI9
aI3
aI1
aI11
aI1
aI13
aI4
aI2
aI3
aI4
aI8
aI2
aI22
aI2
aI14
aI2
aI1
aI22
aI1
aI4
aI2
aI18
aI2
aI8
aI2
aI18
aI1
aI18
aI2
aI18
aI1
aI7
aa(lp61
I16
aI34
aI15
aI34
aI33
aI21
aI34
aI15
aI33
aI15
aI33
aI24
aI34
aI16
aI33
aI30
aI33
aI30
aI34
aI10
aI3
aI9
aI33
aI24
aI28
aI3
aI33
aI15
aI33
aI16
aI34
aI27
aI34
aI14
aI3
aI8
aI3
aI8
aI4
aI2
aa(lp62
I22
aI2
aI14
aI3
aI28
aI24
aI26
aI25
aI26
aI25
aI28
aI34
aI23
aI33
aI9
aI31
aI9
aI3
aI33
aI9
aI34
aI24
aI34
aI31
aI9
aI31
aI2
aI8
aI4
aI1
aI5
aI1
aI20
aI34
aI27
aI30
aI27
aI34
aI28
aI34
aa(lp63
I31
aI2
aI18
aI2
aI18
aI2
aI14
aI34
aI28
aI25
aI26
aI24
aI33
aI31
aI2
aI18
aI1
aI18
aI2
aI18
aI1
aI6
aI7
aI5
aI11
aI5
aI11
aI6
aI1
aI32
aI1
aI7
aI6
aI7
aI1
aI6
aI1
aI18
aI2
aI3
aa(lp64
I30
aI34
aI15
aI33
aI32
aI33
aI21
aI34
aI33
aI30
aI33
aI24
aI34
aI32
aI25
aI28
aI25
aI26
aI25
aI32
aI25
aI28
aI24
aI28
aI25
aI26
aI32
aI25
aI28
aI24
aI33
aI23
aI34
aI14
aI1
aI3
aI8
aI2
aI14
aI3
aa(lp65
I8
aI3
aI2
aI14
aI34
aI14
aI1
aI7
aI6
aI17
aI6
aI1
aI6
aI11
aI6
aI7
aI17
aI6
aI11
aI1
aI18
aI2
aI8
aI3
aI8
aI4
aI3
aI10
aI34
aI24
aI30
aI24
aI34
aI23
aI34
aI28
aI3
aI14
aI1
aI2
aa(lp66
I18
aI2
aI18
aI1
aI11
aI5
aI11
aI1
aI4
aI1
aI18
aI1
aI5
aI7
aI6
aI7
aI6
aI17
aI6
aI1
aI3
aI28
aI24
aI26
aI32
aI34
aI10
aI34
aI29
aI3
aI29
aI34
aI21
aI33
aI16
aI34
aI14
aI4
aI8
aI3
aa(lp67
I11
aI1
aI3
aI8
aI3
aI8
aI2
aI8
aI2
aI18
aI2
aI8
aI2
aI22
aI2
aI31
aI33
aI16
aI34
aI23
aI34
aI29
aI34
aI29
aI3
aI4
aI1
aI22
aI2
aI4
aI1
aI9
aI33
aI30
aI33
aI3
aI2
aI20
aI34
aI15
aa(lp68
I9
aI34
aI33
aI24
aI30
aI24
aI30
aI27
aI34
aI21
aI33
aI23
aI33
aI34
aI28
aI25
aI32
aI34
aI20
aI1
aI3
aI1
aI9
aI33
aI30
aI24
aI33
aI31
aI34
aI30
aI27
aI34
aI28
aI3
aI1
aI7
aI6
aI7
aI6
aI17
aa(lp69
I1
aI9
aI1
aI3
aI33
aI3
aI14
aI1
aI13
aI4
aI14
aI3
aI9
aI3
aI9
aI34
aI9
aI31
aI34
aI10
aI3
aI29
aI3
aI28
aI24
aI26
aI32
aI25
aI28
aI3
aI14
aI34
aI15
aI34
aI27
aI34
aI15
aI34
aI21
aI33
aa(lp70
I11
aI6
aI7
aI5
aI1
aI2
aI1
aI20
aI34
aI21
aI33
aI9
aI34
aI24
aI33
aI3
aI1
aI18
aI1
aI20
aI34
aI21
aI33
aI30
aI27
aI34
aI32
aI29
aI3
aI8
aI4
aI8
aI1
aI11
aI1
aI22
aI1
aI14
aI34
aI32
aa(lp71
I33
aI23
aI33
aI30
aI33
aI32
aI25
aI32
aI1
aI8
aI4
aI3
aI4
aI3
aI8
aI1
aI4
aI13
aI4
aI8
aI1
aI3
aI9
aI31
aI2
aI31
aI34
aI31
aI2
aI18
aI2
aI4
aI14
aI1
aI18
aI1
aI6
aI1
aI3
aI14
aa(lp72
I22
aI1
aI18
aI2
aI31
aI34
aI33
aI23
aI33
aI16
aI33
aI34
aI21
aI33
aI31
aI34
aI9
aI34
aI29
aI34
aI28
aI3
aI14
aI2
aI31
aI34
aI31
aI33
aI16
aI34
aI30
aI33
aI15
aI33
aI23
aI34
aI20
aI34
aI28
aI24
aa(lp73
I3
aI1
aI12
aI1
aI22
aI1
aI11
aI1
aI32
aI29
aI34
aI32
aI26
aI25
aI28
aI25
aI28
aI34
aI20
aI34
aI9
aI3
aI9
aI34
aI29
aI34
aI27
aI34
aI29
aI32
aI34
aI29
aI3
aI29
aI3
aI28
aI24
aI28
aI3
aI9
aa(lp74
I23
aI34
aI31
aI33
aI24
aI28
aI3
aI33
aI32
aI1
aI22
aI2
aI1
aI4
aI2
aI4
aI14
aI3
aI10
aI3
aI9
aI3
aI8
aI2
aI4
aI8
aI1
aI22
aI2
aI14
aI3
aI28
aI34
aI29
aI34
aI21
aI33
aI31
aI33
aI3
aa(lp75
I10
aI3
aI29
aI34
aI19
aI33
aI21
aI34
aI28
aI24
aI26
aI25
aI26
aI25
aI26
aI24
aI26
aI32
aI26
aI24
aI34
aI19
aI33
aI30
aI24
aI33
aI32
aI26
aI32
aI33
aI34
aI30
aI27
aI34
aI20
aI2
aI31
aI2
aI31
aI33
aa(lp76
I4
aI1
aI22
aI1
aI2
aI14
aI3
aI1
aI13
aI4
aI8
aI1
aI7
aI1
aI9
aI3
aI8
aI4
aI8
aI1
aI13
aI4
aI3
aI28
aI25
aI28
aI24
aI28
aI24
aI28
aI24
aI33
aI32
aI1
aI18
aI2
aI18
aI1
aI3
aI2
aa(lp77
I20
aI1
aI6
aI17
aI6
aI1
aI32
aI33
aI31
aI9
aI1
aI12
aI1
aI7
aI1
aI7
aI5
aI7
aI6
aI1
aI8
aI4
aI2
aI22
aI2
aI3
aI14
aI4
aI2
aI18
aI1
aI5
aI11
aI6
aI17
aI6
aI7
aI1
aI9
aI33
aa(lp78
I9
aI33
aI3
aI2
aI18
aI2
aI18
aI1
aI3
aI10
aI3
aI28
aI24
aI34
aI32
aI29
aI34
aI29
aI32
aI29
aI32
aI34
aI15
aI33
aI30
aI24
aI30
aI34
aI20
aI34
aI31
aI33
aI9
aI31
aI34
aI33
aI21
aI33
aI19
aI33
aa(lp79
I2
aI31
aI2
aI31
aI9
aI1
aI18
aI1
aI4
aI2
aI14
aI4
aI14
aI3
aI14
aI3
aI10
aI34
aI16
aI33
aI24
aI33
aI15
aI33
aI23
aI34
aI19
aI33
aI3
aI10
aI34
aI27
aI34
aI28
aI34
aI19
aI34
aI15
aI33
aI21
aa(lp80
I15
aI34
aI29
aI3
aI28
aI34
aI9
aI31
aI2
aI3
aI29
aI3
aI33
aI30
aI34
aI28
aI34
aI29
aI34
aI20
aI2
aI18
aI2
aI20
aI2
aI8
aI2
aI1
aI14
aI3
aI29
aI34
aI21
aI34
aI10
aI34
aI32
aI34
aI19
aI33
aa(lp81
I7
aI5
aI11
aI5
aI7
aI5
aI1
aI20
aI2
aI14
aI3
aI8
aI2
aI31
aI9
aI33
aI15
aI34
aI21
aI33
aI21
aI34
aI31
aI34
aI14
aI34
aI23
aI34
aI14
aI34
aI15
aI34
aI16
aI34
aI14
aI34
aI28
aI3
aI33
aI21
aa(lp82
I25
aI26
aI32
aI1
aI2
aI20
aI1
aI14
aI1
aI32
aI1
aI12
aI1
aI7
aI1
aI9
aI3
aI29
aI3
aI4
aI8
aI2
aI4
aI1
aI20
aI1
aI22
aI2
aI3
aI33
aI16
aI34
aI19
aI33
aI30
aI33
aI31
aI9
aI1
aI7
aa(lp83
I24
aI34
aI30
aI34
aI27
aI30
aI27
aI30
aI24
aI34
aI10
aI3
aI33
aI23
aI34
aI9
aI34
aI27
aI34
aI29
aI34
aI19
aI34
aI31
aI33
aI31
aI34
aI16
aI33
aI19
aI33
aI32
aI33
aI9
aI34
aI19
aI34
aI23
aI33
aI24
aa(lp84
I19
aI34
aI21
aI33
aI32
aI34
aI30
aI24
aI30
aI34
aI31
aI34
aI32
aI29
aI3
aI9
aI34
aI14
aI34
aI20
aI2
aI22
aI1
aI3
aI9
aI34
aI33
aI24
aI26
aI32
aI26
aI24
aI30
aI27
aI34
aI33
aI3
aI29
aI32
aI34
aa(lp85
I27
aI34
aI29
aI32
aI29
aI32
aI26
aI32
aI34
aI19
aI34
aI24
aI28
aI3
aI28
aI24
aI34
aI33
aI19
aI33
aI16
aI33
aI34
aI31
aI34
aI9
aI34
aI31
aI34
aI32
aI26
aI24
aI30
aI33
aI15
aI34
aI33
aI30
aI34
aI30
aa(lp86
I34
aI30
aI24
aI33
aI24
aI34
aI21
aI33
aI23
aI33
aI3
aI1
aI5
aI7
aI6
aI11
aI5
aI11
aI1
aI7
aI6
aI17
aI7
aI6
aI11
aI6
aI17
aI7
aI1
aI8
aI1
aI32
aI33
aI19
aI33
aI23
aI33
aI30
aI34
aI27
aa(lp87
I14
aI34
aI9
aI3
aI9
aI31
aI34
aI14
aI3
aI10
aI34
aI9
aI1
aI3
aI8
aI3
aI28
aI25
aI26
aI32
aI26
aI32
aI25
aI28
aI25
aI28
aI25
aI32
aI33
aI24
aI33
aI19
aI34
aI27
aI34
aI15
aI33
aI15
aI33
aI3
aa(lp88
I13
aI1
aI18
aI1
aI6
aI1
aI12
aI1
aI2
aI8
aI4
aI13
aI4
aI14
aI3
aI28
aI34
aI20
aI2
aI18
aI1
aI12
aI1
aI22
aI2
aI14
aI2
aI8
aI1
aI14
aI3
aI2
aI3
aI1
aI3
aI14
aI4
aI8
aI4
aI8
aa(lp89
I29
aI3
aI28
aI24
aI26
aI24
aI30
aI33
aI31
aI34
aI30
aI34
aI27
aI30
aI33
aI30
aI27
aI30
aI27
aI34
aI28
aI24
aI26
aI25
aI26
aI32
aI25
aI28
aI25
aI26
aI24
aI34
aI32
aI1
aI11
aI1
aI8
aI1
aI18
aI1
aa(lp90
I12
aI1
aI3
aI33
aI23
aI33
aI23
aI33
aI31
aI9
aI34
aI29
aI3
aI9
aI3
aI33
aI32
aI29
aI34
aI10
aI34
aI20
aI1
aI7
aI17
aI6
aI17
aI6
aI11
aI5
aI1
aI18
aI1
aI9
aI34
aI19
aI33
aI3
aI14
aI1
aa(lp91
I26
aI25
aI26
aI24
aI28
aI24
aI26
aI32
aI34
aI33
aI34
aI32
aI29
aI32
aI33
aI23
aI33
aI31
aI2
aI18
aI2
aI14
aI1
aI7
aI6
aI7
aI1
aI12
aI1
aI32
aI25
aI28
aI3
aI2
aI14
aI4
aI2
aI20
aI34
aI33
aa(lp92
I28
aI3
aI14
aI3
aI14
aI34
aI16
aI34
aI10
aI3
aI33
aI16
aI34
aI15
aI34
aI19
aI34
aI29
aI34
aI30
aI27
aI30
aI33
aI21
aI34
aI33
aI19
aI33
aI19
aI33
aI15
aI33
aI19
aI33
aI34
aI20
aI1
aI32
aI29
aI3
aa(lp93
I6
aI17
aI6
aI17
aI6
aI1
aI4
aI14
aI1
aI22
aI1
aI5
aI7
aI1
aI12
aI1
aI13
aI1
aI13
aI4
aI1
aI9
aI33
aI19
aI33
aI32
aI1
aI20
aI1
aI32
aI34
aI10
aI34
aI28
aI34
aI23
aI33
aI31
aI33
aI23
aa(lp94
I8
aI4
aI13
aI1
aI22
aI2
aI22
aI1
aI4
aI2
aI4
aI1
aI2
aI18
aI2
aI20
aI2
aI14
aI3
aI1
aI12
aI1
aI13
aI4
aI13
aI1
aI12
aI1
aI13
aI4
aI13
aI1
aI12
aI1
aI6
aI11
aI6
aI17
aI7
aI17
aa(lp95
I17
aI7
aI6
aI7
aI1
aI12
aI1
aI14
aI4
aI14
aI4
aI13
aI4
aI14
aI2
aI18
aI2
aI18
aI2
aI31
aI2
aI4
aI3
aI10
aI34
aI23
aI33
aI32
aI29
aI34
aI16
aI34
aI20
aI2
aI14
aI2
aI20
aI2
aI18
aI2
aa(lp96
I31
aI9
aI3
aI1
aI8
aI2
aI8
aI3
aI14
aI4
aI2
aI3
aI33
aI21
aI33
aI3
aI14
aI1
aI2
aI4
aI14
aI2
aI1
aI13
aI1
aI6
aI7
aI6
aI7
aI17
aI7
aI6
aI1
aI20
aI34
aI30
aI34
aI14
aI34
aI19
aa(lp97
I30
aI27
aI30
aI24
aI28
aI3
aI29
aI3
aI9
aI3
aI29
aI34
aI19
aI34
aI21
aI33
aI30
aI27
aI34
aI29
aI32
aI25
aI26
aI24
aI30
aI33
aI31
aI9
aI1
aI9
aI3
aI8
aI1
aI11
aI5
aI11
aI6
aI7
aI1
aI32
aa(lp98
I5
aI1
aI14
aI3
aI1
aI14
aI34
aI14
aI4
aI8
aI3
aI9
aI31
aI2
aI8
aI3
aI29
aI34
aI27
aI30
aI24
aI34
aI30
aI34
aI14
aI34
aI19
aI34
aI9
aI33
aI34
aI33
aI9
aI1
aI11
aI5
aI1
aI6
aI17
aI7
aa(lp99
I32
aI25
aI32
aI26
aI32
aI26
aI32
aI33
aI19
aI33
aI15
aI34
aI24
aI33
aI15
aI34
aI27
aI34
aI23
aI34
aI19
aI34
aI27
aI30
aI24
aI28
aI24
aI26
aI25
aI26
aI24
aI34
aI15
aI33
aI3
aI28
aI24
aI33
aI31
aI9
aa(lp100
I18
aI1
aI4
aI3
aI10
aI34
aI24
aI28
aI3
aI2
aI8
aI4
aI8
aI4
aI14
aI34
aI16
aI34
aI21
aI34
aI27
aI30
aI34
aI31
aI9
aI31
aI9
aI31
aI9
aI1
aI20
aI1
aI12
aI1
aI20
aI1
aI4
aI1
aI22
aI2
aa(lp101
I21
aI33
aI32
aI29
aI3
aI10
aI3
aI14
aI2
aI8
aI4
aI8
aI4
aI2
aI1
aI20
aI2
aI3
aI4
aI14
aI3
aI10
aI34
aI32
aI26
aI32
aI34
aI33
aI21
aI34
aI30
aI27
aI34
aI14
aI4
aI3
aI29
aI32
aI33
aI16
aa(lp102
I16
aI33
aI19
aI34
aI16
aI34
aI30
aI34
aI28
aI24
aI34
aI9
aI34
aI29
aI3
aI4
aI14
aI1
aI6
aI1
aI5
aI1
aI7
aI17
aI7
aI1
aI3
aI33
aI16
aI33
aI15
aI33
aI34
aI20
aI2
aI8
aI3
aI10
aI3
aI2
aa(lp103
I22
aI1
aI13
aI1
aI2
aI31
aI34
aI27
aI30
aI27
aI34
aI10
aI3
aI1
aI22
aI2
aI3
aI4
aI8
aI4
aI2
aI22
aI1
aI20
aI1
aI11
aI5
aI11
aI6
aI1
aI18
aI1
aI22
aI2
aI31
aI33
aI21
aI33
aI3
aI33
aa(lp104
I18
aI1
aI8
aI1
aI2
aI4
aI1
aI6
aI17
aI6
aI17
aI7
aI1
aI8
aI1
aI7
aI1
aI4
aI13
aI1
aI9
aI31
aI9
aI3
aI14
aI1
aI4
aI2
aI14
aI2
aI18
aI1
aI9
aI34
aI28
aI25
aI32
aI26
aI25
aI28
aa(lp105
I15
aI33
aI24
aI30
aI34
aI27
aI30
aI34
aI16
aI33
aI32
aI34
aI15
aI33
aI23
aI33
aI31
aI9
aI33
aI3
aI28
aI25
aI26
aI24
aI30
aI33
aI21
aI34
aI32
aI26
aI25
aI32
aI1
aI7
aI1
aI13
aI4
aI8
aI3
aI28
aa(lp106
I4
aI1
aI13
aI4
aI14
aI4
aI1
aI12
aI1
aI6
aI1
aI3
aI2
aI4
aI3
aI14
aI2
aI3
aI10
aI3
aI1
aI5
aI7
aI17
aI6
aI1
aI20
aI34
aI14
aI34
aI23
aI33
aI31
aI33
aI23
aI34
aI20
aI34
aI29
aI34
aa(lp107
I5
aI1
aI6
aI11
aI5
aI7
aI17
aI6
aI11
aI5
aI11
aI1
aI11
aI1
aI22
aI2
aI4
aI14
aI3
aI4
aI3
aI28
aI34
aI31
aI34
aI19
aI33
aI15
aI34
aI14
aI2
aI22
aI2
aI4
aI8
aI2
aI22
aI2
aI14
aI4
aa(lp108
I13
aI4
aI8
aI4
aI13
aI1
aI8
aI1
aI12
aI1
aI8
aI2
aI8
aI3
aI1
aI22
aI2
aI18
aI1
aI3
aI2
aI18
aI2
aI3
aI29
aI3
aI2
aI4
aI13
aI1
aI13
aI1
aI12
aI1
aI2
aI20
aI2
aI4
aI8
aI2
aa(lp109
I9
aI34
aI33
aI24
aI26
aI25
aI26
aI25
aI26
aI32
aI1
aI13
aI1
aI11
aI1
aI8
aI2
aI14
aI3
aI29
aI32
aI34
aI23
aI34
aI27
aI34
aI29
aI32
aI26
aI24
aI33
aI3
aI33
aI34
aI32
aI34
aI33
aI24
aI34
aI15
aa(lp110
I10
aI3
aI1
aI7
aI5
aI1
aI14
aI1
aI4
aI13
aI4
aI14
aI34
aI15
aI34
aI24
aI26
aI24
aI30
aI34
aI29
aI34
aI21
aI34
aI27
aI30
aI27
aI30
aI24
aI33
aI23
aI34
aI10
aI3
aI8
aI1
aI6
aI7
aI5
aI7
aa(lp111
I8
aI3
aI10
aI34
aI10
aI34
aI28
aI34
aI24
aI33
aI21
aI33
aI9
aI31
aI33
aI19
aI33
aI32
aI34
aI19
aI33
aI9
aI34
aI24
aI30
aI27
aI34
aI15
aI34
aI28
aI34
aI31
aI9
aI33
aI23
aI33
aI23
aI34
aI32
aI29
aa(lp112
I27
aI30
aI33
aI30
aI27
aI30
aI24
aI28
aI3
aI4
aI1
aI8
aI3
aI1
aI4
aI1
aI8
aI4
aI2
aI8
aI2
aI3
aI1
aI5
aI1
aI8
aI4
aI2
aI31
aI33
aI31
aI33
aI23
aI34
aI30
aI24
aI26
aI24
aI28
aI3
aa(lp113
I31
aI2
aI8
aI3
aI1
aI12
aI1
aI22
aI2
aI18
aI1
aI8
aI3
aI29
aI32
aI29
aI32
aI29
aI3
aI2
aI18
aI2
aI4
aI13
aI4
aI1
aI13
aI1
aI5
aI1
aI20
aI34
aI20
aI2
aI3
aI33
aI23
aI33
aI19
aI34
aa(lp114
I30
aI27
aI34
aI10
aI34
aI27
aI30
aI24
aI30
aI34
aI9
aI3
aI4
aI2
aI20
aI34
aI27
aI34
aI23
aI33
aI30
aI33
aI19
aI33
aI3
aI8
aI4
aI14
aI3
aI9
aI1
aI14
aI34
aI10
aI34
aI15
aI33
aI24
aI28
aI3
aa(lp115
I3
aI28
aI34
aI24
aI33
aI30
aI33
aI21
aI34
aI16
aI33
aI24
aI34
aI19
aI33
aI30
aI24
aI28
aI34
aI28
aI3
aI8
aI3
aI2
aI31
aI2
aI18
aI1
aI6
aI1
aI18
aI2
aI31
aI2
aI18
aI2
aI18
aI1
aI9
aI3
aa(lp116
I23
aI34
aI10
aI34
aI9
aI1
aI5
aI11
aI6
aI7
aI1
aI6
aI17
aI7
aI1
aI14
aI4
aI14
aI34
aI31
aI33
aI32
aI29
aI3
aI10
aI3
aI4
aI2
aI1
aI6
aI17
aI7
aI6
aI1
aI32
aI1
aI32
aI25
aI26
aI32
aa(lp117
I1
aI2
aI4
aI8
aI3
aI28
aI24
aI33
aI3
aI1
aI5
aI11
aI1
aI14
aI34
aI33
aI9
aI3
aI1
aI18
aI1
aI6
aI17
aI7
aI17
aI7
aI1
aI4
aI1
aI7
aI17
aI7
aI1
aI8
aI4
aI13
aI1
aI22
aI1
aI7
aa(lp118
I6
aI1
aI8
aI3
aI1
aI4
aI8
aI4
aI1
aI32
aI29
aI34
aI9
aI3
aI9
aI31
aI34
aI23
aI34
aI33
aI32
aI26
aI32
aI25
aI32
aI33
aI24
aI34
aI30
aI34
aI21
aI34
aI29
aI3
aI9
aI3
aI29
aI32
aI26
aI25
aa(lp119
I12
aI1
aI6
aI17
aI7
aI17
aI6
aI7
aI1
aI5
aI7
aI17
aI6
aI1
aI20
aI34
aI24
aI26
aI24
aI28
aI24
aI28
aI34
aI33
aI21
aI33
aI21
aI33
aI21
aI33
aI34
aI19
aI33
aI34
aI28
aI25
aI26
aI24
aI33
aI16
aa(lp120
I26
aI25
aI26
aI25
aI28
aI25
aI28
aI3
aI9
aI1
aI3
aI4
aI8
aI4
aI8
aI2
aI1
aI14
aI34
aI9
aI33
aI19
aI33
aI30
aI27
aI34
aI28
aI25
aI28
aI25
aI28
aI3
aI1
aI9
aI33
aI34
aI23
aI34
aI32
aI1
aa(lp121
I28
aI3
aI9
aI31
aI9
aI3
aI29
aI32
aI29
aI34
aI27
aI30
aI24
aI26
aI25
aI26
aI25
aI32
aI26
aI32
aI33
aI31
aI9
aI33
aI24
aI26
aI24
aI33
aI30
aI24
aI30
aI27
aI30
aI34
aI33
aI3
aI33
aI30
aI27
aI30
aa(lp122
I34
aI24
aI30
aI34
aI33
aI31
aI34
aI28
aI34
aI24
aI33
aI21
aI34
aI32
aI34
aI16
aI33
aI24
aI28
aI24
aI33
aI30
aI34
aI30
aI27
aI30
aI27
aI34
aI20
aI34
aI20
aI34
aI29
aI34
aI9
aI34
aI20
aI1
aI2
aI22
aa(lp123
I17
aI6
aI11
aI6
aI17
aI7
aI6
aI11
aI5
aI1
aI5
aI1
aI5
aI11
aI1
aI5
aI11
aI6
aI11
aI1
aI20
aI1
aI13
aI1
aI18
aI1
aI12
aI1
aI20
aI34
aI15
aI34
aI33
aI24
aI34
aI33
aI16
aI33
aI16
aI34
aa(lp124
I25
aI26
aI25
aI32
aI25
aI28
aI24
aI30
aI34
aI21
aI33
aI32
aI34
aI19
aI33
aI21
aI34
aI21
aI33
aI9
aI33
aI23
aI34
aI19
aI33
aI19
aI34
aI21
aI33
aI30
aI34
aI21
aI33
aI23
aI34
aI20
aI34
aI33
aI21
aI34
aa(lp125
I19
aI33
aI30
aI24
aI28
aI34
aI15
aI34
aI15
aI33
aI19
aI34
aI16
aI33
aI21
aI34
aI14
aI3
aI10
aI34
aI27
aI30
aI27
aI34
aI24
aI33
aI16
aI33
aI34
aI33
aI30
aI34
aI33
aI16
aI33
aI34
aI29
aI3
aI28
aI3
aa(lp126
I32
aI25
aI28
aI3
aI8
aI1
aI14
aI4
aI14
aI1
aI32
aI25
aI26
aI25
aI32
aI25
aI28
aI24
aI33
aI19
aI34
aI10
aI34
aI33
aI19
aI34
aI30
aI24
aI30
aI34
aI31
aI33
aI31
aI33
aI30
aI34
aI10
aI3
aI1
aI22
aa(lp127
I33
aI15
aI34
aI20
aI2
aI8
aI4
aI1
aI14
aI3
aI10
aI3
aI28
aI25
aI28
aI24
aI30
aI33
aI15
aI34
aI31
aI9
aI31
aI33
aI21
aI33
aI24
aI33
aI24
aI30
aI27
aI34
aI10
aI34
aI9
aI33
aI21
aI34
aI9
aI34
aa(lp128
I29
aI3
aI29
aI34
aI32
aI29
aI3
aI10
aI34
aI32
aI33
aI9
aI1
aI18
aI1
aI7
aI5
aI11
aI6
aI17
aI6
aI17
aI7
aI17
aI7
aI6
aI11
aI6
aI1
aI11
aI1
aI20
aI34
aI24
aI28
aI34
aI10
aI34
aI9
aI33
aa(lp129
I21
aI34
aI30
aI33
aI15
aI34
aI15
aI34
aI27
aI34
aI24
aI26
aI32
aI29
aI32
aI26
aI25
aI32
aI25
aI28
aI3
aI9
aI33
aI3
aI29
aI3
aI2
aI3
aI28
aI25
aI32
aI25
aI32
aI1
aI4
aI3
aI8
aI4
aI13
aI1
aa(lp130
I20
aI1
aI11
aI1
aI11
aI6
aI11
aI1
aI22
aI1
aI9
aI31
aI34
aI19
aI34
aI31
aI33
aI15
aI33
aI9
aI33
aI21
aI33
aI34
aI15
aI33
aI24
aI28
aI24
aI30
aI33
aI3
aI1
aI2
aI1
aI5
aI11
aI1
aI5
aI7
aa(lp131
I24
aI28
aI25
aI26
aI32
aI1
aI7
aI5
aI7
aI1
aI2
aI3
aI14
aI3
aI14
aI3
aI1
aI5
aI11
aI6
aI17
aI6
aI11
aI1
aI2
aI8
aI3
aI4
aI14
aI2
aI18
aI1
aI3
aI29
aI32
aI1
aI8
aI3
aI29
aI32
aa(lp132
I7
aI5
aI11
aI5
aI11
aI5
aI11
aI6
aI17
aI6
aI11
aI6
aI7
aI5
aI1
aI32
aI33
aI34
aI27
aI30
aI34
aI31
aI34
aI24
aI30
aI34
aI29
aI3
aI28
aI34
aI23
aI33
aI21
aI33
aI31
aI9
aI34
aI21
aI33
aI19
aa(lp133
I2
aI22
aI2
aI31
aI33
aI30
aI34
aI29
aI32
aI34
aI32
aI34
aI15
aI33
aI24
aI26
aI25
aI28
aI34
aI9
aI3
aI8
aI1
aI7
aI17
aI6
aI1
aI18
aI2
aI31
aI33
aI19
aI34
aI24
aI26
aI25
aI28
aI25
aI26
aI24
aa(lp134
I11
aI1
aI6
aI11
aI5
aI7
aI1
aI2
aI14
aI34
aI9
aI1
aI32
aI25
aI26
aI24
aI26
aI24
aI30
aI24
aI34
aI33
aI19
aI34
aI27
aI30
aI34
aI33
aI30
aI33
aI19
aI34
aI9
aI3
aI29
aI3
aI2
aI1
aI2
aI22
aa(lp135
I16
aI34
aI24
aI34
aI14
aI34
aI29
aI34
aI16
aI33
aI24
aI33
aI34
aI14
aI2
aI18
aI2
aI4
aI3
aI14
aI1
aI9
aI3
aI1
aI7
aI5
aI11
aI5
aI1
aI6
aI11
aI6
aI7
aI5
aI1
aI3
aI2
aI18
aI2
aI22
aa(lp136
I14
aI34
aI16
aI33
aI34
aI23
aI34
aI28
aI34
aI20
aI34
aI21
aI33
aI30
aI33
aI16
aI34
aI10
aI34
aI9
aI1
aI14
aI4
aI14
aI3
aI33
aI23
aI33
aI16
aI33
aI32
aI1
aI11
aI5
aI11
aI5
aI7
aI6
aI1
aI13
aa(lp137
I25
aI28
aI34
aI20
aI1
aI6
aI17
aI7
aI17
aI7
aI5
aI7
aI1
aI2
aI31
aI33
aI31
aI2
aI18
aI2
aI3
aI29
aI34
aI32
aI25
aI28
aI34
aI33
aI21
aI34
aI31
aI34
aI28
aI34
aI28
aI3
aI4
aI2
aI3
aI10
aa(lp138
I9
aI3
aI4
aI3
aI2
aI14
aI34
aI23
aI34
aI20
aI34
aI19
aI33
aI30
aI33
aI19
aI33
aI15
aI34
aI16
aI34
aI9
aI31
aI34
aI21
aI34
aI14
aI1
aI6
aI1
aI20
aI1
aI32
aI33
aI32
aI1
aI8
aI2
aI3
aI33
aa(lp139
I2
aI22
aI1
aI12
aI1
aI8
aI4
aI8
aI3
aI29
aI3
aI28
aI24
aI34
aI14
aI2
aI14
aI4
aI3
aI14
aI34
aI19
aI33
aI19
aI33
aI9
aI33
aI16
aI33
aI32
aI1
aI7
aI6
aI17
aI7
aI6
aI17
aI7
aI1
aI9
aa(lp140
I23
aI33
aI19
aI33
aI31
aI33
aI30
aI34
aI14
aI4
aI13
aI4
aI13
aI1
aI3
aI2
aI22
aI1
aI4
aI3
aI10
aI3
aI1
aI4
aI8
aI2
aI20
aI1
aI18
aI2
aI4
aI2
aI8
aI1
aI18
aI2
aI18
aI2
aI22
aI1
aa(lp141
I3
aI28
aI25
aI26
aI25
aI32
aI25
aI26
aI24
aI28
aI24
aI34
aI23
aI34
aI16
aI34
aI33
aI19
aI34
aI9
aI1
aI2
aI22
aI2
aI20
aI34
aI19
aI34
aI32
aI29
aI34
aI31
aI33
aI31
aI34
aI15
aI33
aI24
aI34
aI30
aa(lp142
I33
aI31
aI2
aI4
aI14
aI4
aI13
aI4
aI13
aI1
aI22
aI1
aI32
aI29
aI3
aI29
aI34
aI32
aI29
aI3
aI1
aI4
aI8
aI2
aI18
aI1
aI14
aI3
aI14
aI34
aI10
aI34
aI16
aI34
aI21
aI33
aI34
aI24
aI26
aI32
aa(lp143
I32
aI25
aI28
aI3
aI33
aI24
aI34
aI27
aI34
aI31
aI34
aI29
aI34
aI28
aI25
aI32
aI34
aI33
aI3
aI10
aI34
aI28
aI3
aI2
aI8
aI3
aI9
aI3
aI1
aI13
aI1
aI11
aI1
aI32
aI25
aI32
aI33
aI15
aI33
aI19
aa(lp144
I7
aI1
aI13
aI4
aI8
aI3
aI1
aI8
aI2
aI31
aI9
aI31
aI33
aI15
aI33
aI32
aI34
aI9
aI1
aI22
aI2
aI1
aI11
aI6
aI7
aI5
aI11
aI5
aI1
aI6
aI11
aI6
aI7
aI5
aI11
aI6
aI17
aI6
aI1
aI13
aa(lp145
I14
aI2
aI4
aI8
aI1
aI14
aI3
aI9
aI34
aI21
aI34
aI27
aI34
aI32
aI25
aI32
aI1
aI5
aI11
aI1
aI5
aI7
aI17
aI7
aI1
aI6
aI1
aI7
aI1
aI13
aI4
aI1
aI2
aI3
aI29
aI34
aI19
aI33
aI15
aI34
aa(lp146
I30
aI33
aI3
aI4
aI1
aI9
aI34
aI31
aI33
aI34
aI32
aI29
aI32
aI25
aI26
aI25
aI28
aI3
aI1
aI5
aI1
aI9
aI34
aI32
aI25
aI32
aI29
aI34
aI19
aI33
aI24
aI30
aI27
aI30
aI33
aI31
aI33
aI23
aI34
aI31
aa(lp147
I4
aI1
aI13
aI1
aI8
aI1
aI5
aI7
aI1
aI14
aI3
aI29
aI3
aI33
aI34
aI20
aI1
aI4
aI1
aI2
aI22
aI1
aI9
aI31
aI34
aI20
aI2
aI20
aI2
aI18
aI1
aI12
aI1
aI6
aI17
aI7
aI6
aI7
aI6
aI11
aa(lp148
I15
aI34
aI24
aI28
aI25
aI26
aI24
aI28
aI24
aI26
aI24
aI34
aI30
aI24
aI33
aI23
aI33
aI30
aI27
aI30
aI27
aI34
aI31
aI34
aI19
aI34
aI9
aI33
aI30
aI34
aI21
aI33
aI24
aI28
aI34
aI19
aI33
aI19
aI33
aI34
aa(lp149
I22
aI2
aI20
aI1
aI6
aI1
aI12
aI1
aI3
aI33
aI16
aI34
aI14
aI2
aI3
aI4
aI1
aI7
aI17
aI7
aI17
aI6
aI1
aI4
aI3
aI4
aI1
aI6
aI7
aI5
aI11
aI6
aI11
aI1
aI3
aI9
aI1
aI11
aI6
aI7
aa(lp150
I19
aI34
aI33
aI9
aI34
aI21
aI34
aI20
aI34
aI31
aI34
aI19
aI33
aI9
aI33
aI19
aI33
aI9
aI1
aI20
aI2
aI3
aI2
aI8
aI2
aI3
aI1
aI32
aI26
aI25
aI28
aI25
aI32
aI25
aI28
aI3
aI4
aI1
aI9
aI34
aa(lp151
I18
aI2
aI20
aI34
aI23
aI33
aI21
aI34
aI15
aI33
aI34
aI21
aI34
aI33
aI30
aI27
aI34
aI23
aI33
aI23
aI33
aI9
aI34
aI32
aI33
aI21
aI34
aI21
aI34
aI32
aI25
aI32
aI34
aI20
aI2
aI4
aI14
aI2
aI4
aI3
aa(lp152
I5
aI1
aI4
aI1
aI14
aI2
aI1
aI14
aI2
aI22
aI2
aI18
aI2
aI31
aI9
aI33
aI3
aI14
aI34
aI24
aI28
aI25
aI28
aI24
aI30
aI24
aI30
aI24
aI26
aI24
aI30
aI27
aI30
aI34
aI10
aI3
aI29
aI34
aI21
aI34
aa(lp153
I34
aI16
aI33
aI31
aI9
aI34
aI21
aI34
aI15
aI33
aI9
aI31
aI2
aI31
aI34
aI16
aI33
aI3
aI33
aI23
aI33
aI34
aI16
aI34
aI21
aI33
aI16
aI34
aI15
aI33
aI15
aI33
aI3
aI2
aI1
aI13
aI4
aI3
aI8
aI3
aa(lp154
I26
aI32
aI29
aI3
aI28
aI34
aI23
aI34
aI24
aI26
aI25
aI32
aI1
aI18
aI2
aI18
aI1
aI4
aI8
aI4
aI8
aI4
aI13
aI1
aI20
aI1
aI32
aI1
aI8
aI4
aI3
aI14
aI4
aI2
aI8
aI3
aI10
aI34
aI29
aI3
aa(lp155
I29
aI34
aI27
aI34
aI19
aI34
aI32
aI25
aI28
aI25
aI32
aI25
aI28
aI34
aI10
aI34
aI28
aI34
aI32
aI33
aI24
aI26
aI25
aI26
aI25
aI26
aI25
aI26
aI32
aI29
aI3
aI2
aI20
aI34
aI32
aI26
aI24
aI34
aI23
aI34
aa(lp156
I12
aI1
aI18
aI1
aI32
aI26
aI24
aI33
aI15
aI33
aI21
aI34
aI29
aI34
aI15
aI34
aI21
aI33
aI31
aI9
aI31
aI2
aI4
aI8
aI1
aI4
aI8
aI1
aI14
aI34
aI14
aI2
aI1
aI32
aI33
aI9
aI3
aI14
aI2
aI3
aa(lp157
I11
aI6
aI7
aI6
aI7
aI1
aI20
aI34
aI21
aI34
aI14
aI34
aI29
aI34
aI15
aI34
aI19
aI33
aI30
aI34
aI28
aI24
aI34
aI14
aI34
aI28
aI25
aI26
aI25
aI28
aI25
aI32
aI33
aI21
aI34
aI30
aI33
aI24
aI30
aI24
aa(lp158
I13
aI4
aI2
aI18
aI1
aI2
aI8
aI3
aI4
aI1
aI18
aI1
aI2
aI3
aI28
aI34
aI32
aI34
aI21
aI34
aI10
aI34
aI29
aI34
aI10
aI3
aI4
aI1
aI5
aI11
aI5
aI7
aI1
aI20
aI2
aI22
aI1
aI2
aI4
aI8
aa(lp159
I27
aI30
aI27
aI34
aI20
aI1
aI2
aI22
aI1
aI3
aI4
aI2
aI1
aI12
aI1
aI18
aI1
aI11
aI6
aI17
aI6
aI1
aI22
aI2
aI1
aI2
aI22
aI1
aI2
aI18
aI2
aI31
aI2
aI20
aI1
aI20
aI2
aI22
aI2
aI22
aa(lp160
I20
aI1
aI6
aI1
aI3
aI4
aI1
aI9
aI3
aI1
aI5
aI11
aI1
aI2
aI22
aI2
aI1
aI6
aI7
aI6
aI11
aI6
aI7
aI5
aI7
aI17
aI6
aI17
aI7
aI5
aI11
aI1
aI2
aI22
aI1
aI20
aI2
aI18
aI2
aI4
aa(lp161
I1
aI8
aI4
aI14
aI4
aI14
aI3
aI2
aI22
aI2
aI4
aI13
aI1
aI22
aI1
aI12
aI1
aI20
aI34
aI19
aI34
aI15
aI34
aI23
aI33
aI23
aI33
aI23
aI33
aI16
aI33
aI32
aI26
aI32
aI26
aI24
aI33
aI19
aI34
aI28
aa(lp162
I24
aI33
aI34
aI31
aI9
aI31
aI34
aI32
aI29
aI32
aI1
aI5
aI1
aI7
aI1
aI11
aI1
aI7
aI1
aI5
aI7
aI5
aI1
aI20
aI2
aI22
aI1
aI7
aI1
aI11
aI6
aI1
aI12
aI1
aI13
aI4
aI3
aI29
aI32
aI25
aa(lp163
I21
aI33
aI24
aI34
aI28
aI3
aI28
aI3
aI2
aI3
aI2
aI3
aI4
aI8
aI4
aI8
aI3
aI28
aI34
aI16
aI34
aI15
aI33
aI31
aI2
aI31
aI34
aI28
aI25
aI28
aI3
aI8
aI4
aI8
aI2
aI3
aI4
aI8
aI3
aI33
aa(lp164
I31
aI34
aI29
aI32
aI34
aI27
aI34
aI20
aI1
aI7
aI17
aI7
aI5
aI1
aI7
aI6
aI7
aI1
aI32
aI34
aI31
aI9
aI34
aI10
aI34
aI9
aI3
aI10
aI3
aI9
aI34
aI32
aI34
aI30
aI24
aI33
aI19
aI34
aI19
aI34
aa(lp165
I8
aI4
aI2
aI3
aI8
aI2
aI8
aI4
aI14
aI3
aI29
aI32
aI34
aI16
aI34
aI24
aI26
aI25
aI26
aI24
aI33
aI15
aI34
aI24
aI30
aI24
aI33
aI21
aI34
aI32
aI34
aI27
aI34
aI33
aI3
aI2
aI20
aI1
aI9
aI33
aa(lp166
I17
aI6
aI11
aI1
aI4
aI8
aI1
aI4
aI14
aI4
aI1
aI14
aI34
aI31
aI33
aI23
aI34
aI19
aI34
aI30
aI27
aI30
aI34
aI16
aI33
aI24
aI34
aI27
aI30
aI24
aI34
aI23
aI33
aI31
aI33
aI30
aI34
aI31
aI33
aI9
aa(lp167
I28
aI34
aI23
aI34
aI24
aI28
aI25
aI28
aI34
aI32
aI34
aI23
aI33
aI9
aI1
aI6
aI1
aI14
aI3
aI29
aI34
aI23
aI33
aI23
aI34
aI23
aI34
aI16
aI33
aI34
aI10
aI3
aI4
aI14
aI2
aI18
aI2
aI14
aI2
aI14
aa(lp168
I16
aI33
aI19
aI33
aI19
aI33
aI30
aI33
aI31
aI33
aI9
aI1
aI32
aI33
aI24
aI30
aI27
aI34
aI32
aI25
aI28
aI24
aI34
aI24
aI33
aI19
aI33
aI30
aI34
aI14
aI34
aI28
aI24
aI26
aI32
aI29
aI32
aI25
aI28
aI3
aa(lp169
I10
aI34
aI27
aI30
aI24
aI30
aI24
aI28
aI34
aI30
aI33
aI32
aI29
aI3
aI33
aI3
aI1
aI22
aI2
aI22
aI2
aI20
aI34
aI19
aI34
aI32
aI25
aI26
aI25
aI28
aI24
aI28
aI25
aI28
aI24
aI33
aI19
aI33
aI19
aI34
aa(lp170
I6
aI17
aI6
aI11
aI1
aI22
aI2
aI8
aI4
aI1
aI12
aI1
aI18
aI2
aI4
aI8
aI3
aI8
aI2
aI1
aI32
aI26
aI32
aI33
aI16
aI33
aI19
aI34
aI23
aI33
aI34
aI33
aI32
aI25
aI28
aI34
aI33
aI24
aI26
aI32
aa(lp171
I5
aI7
aI6
aI11
aI1
aI9
aI34
aI16
aI33
aI16
aI33
aI24
aI30
aI34
aI21
aI33
aI3
aI4
aI13
aI4
aI8
aI2
aI8
aI2
aI8
aI4
aI3
aI10
aI3
aI29
aI3
aI9
aI3
aI2
aI31
aI33
aI34
aI9
aI31
aI33
aa(lp172
I12
aI1
aI14
aI4
aI2
aI31
aI33
aI3
aI14
aI34
aI10
aI3
aI10
aI3
aI8
aI3
aI4
aI14
aI1
aI18
aI1
aI20
aI2
aI20
aI2
aI22
aI1
aI18
aI1
aI6
aI1
aI9
aI3
aI29
aI3
aI28
aI34
aI27
aI30
aI24
aa(lp173
I10
aI3
aI29
aI32
aI34
aI28
aI3
aI14
aI2
aI18
aI1
aI18
aI2
aI14
aI4
aI3
aI10
aI34
aI19
aI33
aI19
aI33
aI3
aI28
aI34
aI19
aI33
aI30
aI34
aI9
aI1
aI3
aI8
aI4
aI1
aI7
aI17
aI7
aI5
aI11
aa(lp174
I7
aI17
aI6
aI17
aI7
aI5
aI7
aI5
aI7
aI6
aI17
aI6
aI11
aI1
aI7
aI5
aI11
aI5
aI7
aI17
aI6
aI11
aI6
aI1
aI12
aI1
aI11
aI1
aI20
aI2
aI8
aI2
aI22
aI2
aI31
aI33
aI9
aI31
aI33
aI3
aa(lp175
I1
aI4
aI8
aI1
aI14
aI1
aI8
aI4
aI8
aI1
aI11
aI6
aI1
aI3
aI2
aI22
aI1
aI18
aI2
aI20
aI34
aI30
aI33
aI30
aI24
aI30
aI27
aI34
aI30
aI27
aI34
aI14
aI34
aI10
aI3
aI8
aI4
aI3
aI2
aI20
aa(lp176
I32
aI25
aI32
aI33
aI30
aI27
aI34
aI21
aI33
aI24
aI34
aI32
aI26
aI32
aI1
aI22
aI1
aI11
aI1
aI8
aI2
aI14
aI34
aI23
aI34
aI9
aI3
aI29
aI3
aI29
aI32
aI25
aI26
aI24
aI33
aI15
aI34
aI31
aI9
aI34
aa(lp177
I9
aI1
aI13
aI1
aI2
aI20
aI2
aI20
aI1
aI3
aI4
aI3
aI14
aI4
aI2
aI22
aI2
aI3
aI33
aI32
aI33
aI23
aI33
aI9
aI3
aI10
aI3
aI4
aI13
aI4
aI1
aI6
aI7
aI5
aI11
aI1
aI18
aI1
aI12
aI1
aa(lp178
I25
aI26
aI32
aI1
aI8
aI2
aI8
aI3
aI28
aI25
aI26
aI25
aI32
aI26
aI24
aI33
aI3
aI28
aI24
aI34
aI32
aI26
aI25
aI28
aI34
aI14
aI2
aI4
aI1
aI18
aI2
aI22
aI1
aI6
aI11
aI1
aI6
aI11
aI6
aI11
aa(lp179
I2
aI31
aI9
aI33
aI23
aI33
aI9
aI31
aI2
aI8
aI1
aI8
aI2
aI14
aI34
aI27
aI30
aI24
aI26
aI25
aI32
aI26
aI25
aI28
aI3
aI29
aI32
aI1
aI22
aI1
aI2
aI1
aI11
aI1
aI3
aI1
aI9
aI1
aI5
aI11
aa(lp180
I11
aI1
aI2
aI31
aI34
aI27
aI34
aI32
aI26
aI25
aI32
aI1
aI20
aI2
aI31
aI9
aI1
aI11
aI6
aI11
aI1
aI13
aI4
aI8
aI1
aI5
aI1
aI32
aI33
aI32
aI26
aI24
aI30
aI34
aI31
aI33
aI30
aI27
aI34
aI29
aa(lp181
I20
aI1
aI3
aI28
aI24
aI33
aI16
aI34
aI31
aI33
aI3
aI29
aI3
aI9
aI1
aI8
aI4
aI3
aI28
aI24
aI30
aI27
aI34
aI15
aI34
aI31
aI9
aI31
aI34
aI31
aI2
aI8
aI2
aI22
aI2
aI20
aI2
aI4
aI2
aI14
aa(lp182
I30
aI27
aI34
aI21
aI34
aI10
aI3
aI28
aI34
aI24
aI30
aI33
aI31
aI34
aI19
aI33
aI30
aI33
aI23
aI33
aI30
aI34
aI28
aI34
aI9
aI3
aI4
aI2
aI1
aI13
aI4
aI2
aI14
aI2
aI22
aI2
aI14
aI4
aI14
aI4
aa(lp183
I31
aI9
aI1
aI9
aI1
aI6
aI11
aI5
aI1
aI8
aI2
aI22
aI1
aI7
aI17
aI6
aI11
aI5
aI11
aI6
aI7
aI6
aI11
aI1
aI18
aI1
aI13
aI1
aI5
aI7
aI1
aI12
aI1
aI2
aI20
aI2
aI4
aI8
aI3
aI14
aa(lp184
I8
aI3
aI4
aI14
aI3
aI4
aI8
aI1
aI2
aI4
aI14
aI1
aI11
aI6
aI11
aI1
aI9
aI31
aI2
aI8
aI4
aI1
aI4
aI14
aI34
aI10
aI34
aI31
aI9
aI1
aI9
aI1
aI18
aI1
aI7
aI6
aI11
aI1
aI8
aI3
aa(lp185
I27
aI30
aI34
aI23
aI34
aI31
aI2
aI22
aI1
aI5
aI11
aI5
aI11
aI1
aI13
aI1
aI14
aI1
aI3
aI14
aI34
aI10
aI3
aI1
aI20
aI1
aI14
aI2
aI14
aI2
aI3
aI29
aI3
aI8
aI4
aI8
aI3
aI2
aI3
aI28
aa(lp186
I33
aI16
aI34
aI27
aI34
aI19
aI33
aI32
aI25
aI26
aI32
aI34
aI15
aI34
aI15
aI34
aI28
aI24
aI28
aI34
aI15
aI34
aI15
aI34
aI10
aI34
aI32
aI34
aI29
aI34
aI9
aI3
aI10
aI34
aI9
aI34
aI14
aI1
aI3
aI29
aa(lp187
I22
aI1
aI12
aI1
aI14
aI4
aI13
aI1
aI13
aI1
aI14
aI4
aI2
aI18
aI2
aI31
aI34
aI15
aI33
aI34
aI27
aI30
aI24
aI28
aI25
aI28
aI24
aI33
aI3
aI8
aI4
aI13
aI4
aI1
aI3
aI1
aI2
aI31
aI34
aI33
aa(lp188
I15
aI34
aI14
aI1
aI20
aI2
aI31
aI2
aI4
aI13
aI1
aI13
aI1
aI13
aI4
aI14
aI34
aI24
aI33
aI19
aI34
aI27
aI30
aI27
aI30
aI34
aI30
aI24
aI34
aI20
aI34
aI14
aI34
aI23
aI33
aI34
aI24
aI33
aI21
aI33
aa(lp189
I23
aI34
aI21
aI33
aI24
aI33
aI32
aI33
aI16
aI33
aI24
aI34
aI10
aI34
aI31
aI33
aI24
aI34
aI29
aI3
aI29
aI32
aI26
aI32
aI26
aI25
aI32
aI34
aI33
aI19
aI33
aI30
aI24
aI34
aI19
aI34
aI32
aI34
aI20
aI1
aa(lp190
I19
aI34
aI9
aI34
aI16
aI33
aI16
aI34
aI31
aI33
aI24
aI34
aI14
aI1
aI5
aI1
aI11
aI5
aI11
aI1
aI4
aI8
aI1
aI18
aI1
aI11
aI5
aI1
aI14
aI3
aI1
aI5
aI1
aI9
aI3
aI1
aI18
aI1
aI6
aI17
aa(lp191
I3
aI2
aI4
aI8
aI4
aI1
aI7
aI6
aI17
aI7
aI5
aI1
aI2
aI22
aI1
aI13
aI1
aI8
aI3
aI14
aI3
aI2
aI22
aI1
aI6
aI7
aI17
aI7
aI17
aI7
aI17
aI6
aI7
aI1
aI12
aI1
aI5
aI1
aI22
aI1
aa(lp192
I14
aI34
aI20
aI34
aI30
aI27
aI34
aI9
aI3
aI9
aI31
aI33
aI16
aI33
aI15
aI34
aI16
aI34
aI33
aI15
aI33
aI19
aI33
aI23
aI34
aI16
aI33
aI19
aI34
aI31
aI9
aI1
aI18
aI1
aI9
aI3
aI8
aI4
aI1
aI9
aa(lp193
I24
aI30
aI24
aI28
aI25
aI26
aI32
aI1
aI9
aI31
aI9
aI33
aI21
aI34
aI28
aI3
aI4
aI8
aI4
aI3
aI2
aI3
aI1
aI3
aI10
aI3
aI2
aI4
aI2
aI31
aI2
aI14
aI2
aI18
aI2
aI3
aI8
aI4
aI2
aI4
aa(lp194
I26
aI24
aI28
aI34
aI27
aI34
aI15
aI34
aI33
aI3
aI9
aI31
aI33
aI31
aI33
aI34
aI28
aI25
aI28
aI24
aI30
aI24
aI33
aI3
aI8
aI1
aI14
aI34
aI21
aI33
aI31
aI9
aI3
aI2
aI4
aI13
aI1
aI4
aI14
aI3
aa(lp195
I18
aI1
aI12
aI1
aI5
aI1
aI18
aI2
aI3
aI29
aI3
aI28
aI3
aI28
aI34
aI30
aI33
aI19
aI34
aI14
aI34
aI21
aI34
aI10
aI3
aI8
aI1
aI20
aI34
aI28
aI34
aI14
aI34
aI14
aI3
aI33
aI24
aI30
aI24
aI26
aa(lp196
I17
aI7
aI6
aI1
aI6
aI17
aI7
aI1
aI3
aI8
aI3
aI14
aI4
aI13
aI4
aI14
aI2
aI18
aI1
aI9
aI31
aI34
aI29
aI32
aI26
aI25
aI26
aI32
aI33
aI23
aI34
aI27
aI34
aI9
aI33
aI19
aI34
aI15
aI33
aI21
aa(lp197
I16
aI34
aI33
aI21
aI34
aI24
aI28
aI25
aI26
aI24
aI33
aI3
aI28
aI34
aI24
aI33
aI19
aI33
aI9
aI34
aI21
aI33
aI31
aI2
aI4
aI3
aI33
aI15
aI34
aI23
aI33
aI34
aI9
aI1
aI13
aI1
aI14
aI1
aI11
aI1
aa(lp198
I34
aI23
aI33
aI24
aI26
aI25
aI32
aI25
aI28
aI24
aI34
aI10
aI3
aI33
aI34
aI23
aI33
aI19
aI34
aI10
aI34
aI29
aI3
aI8
aI1
aI14
aI3
aI28
aI24
aI26
aI32
aI1
aI2
aI20
aI1
aI3
aI2
aI20
aI2
aI1
aa(lp199
I28
aI24
aI33
aI3
aI10
aI34
aI10
aI34
aI24
aI34
aI27
aI34
aI10
aI3
aI9
aI33
aI30
aI34
aI9
aI31
aI33
aI19
aI33
aI23
aI33
aI30
aI34
aI31
aI2
aI4
aI2
aI4
aI14
aI3
aI1
aI13
aI1
aI32
aI26
aI25
aa(lp200
I29
aI3
aI1
aI4
aI1
aI18
aI1
aI20
aI2
aI8
aI4
aI13
aI1
aI3
aI2
aI20
aI34
aI21
aI34
aI23
aI34
aI24
aI34
aI32
aI26
aI24
aI28
aI25
aI32
aI1
aI12
aI1
aI20
aI1
aI7
aI1
aI8
aI2
aI8
aI2
aa(lp201
I6
aI11
aI5
aI1
aI6
aI1
aI5
aI7
aI6
aI17
aI7
aI5
aI11
aI6
aI17
aI7
aI6
aI11
aI6
aI7
aI5
aI1
aI8
aI4
aI1
aI4
aI13
aI4
aI3
aI9
aI3
aI1
aI12
aI1
aI32
aI26
aI25
aI32
aI33
aI30
aa(lp202
I13
aI4
aI8
aI4
aI1
aI14
aI2
aI18
aI2
aI20
aI2
aI31
aI9
aI1
aI32
aI26
aI25
aI32
aI33
aI15
aI33
aI30
aI27
aI34
aI29
aI34
aI29
aI3
aI14
aI34
aI9
aI34
aI20
aI1
aI13
aI1
aI5
aI11
aI5
aI7
aa(lp203
I21
aI34
aI9
aI3
aI4
aI14
aI3
aI8
aI3
aI10
aI3
aI28
aI34
aI29
aI3
aI8
aI1
aI4
aI14
aI1
aI9
aI1
aI13
aI1
aI18
aI1
aI6
aI1
aI11
aI1
aI12
aI1
aI7
aI1
aI7
aI1
aI32
aI26
aI32
aI34
aa(lp204
I4
aI8
aI2
aI18
aI2
aI4
aI2
aI18
aI2
aI1
aI13
aI1
aI13
aI4
aI1
aI2
aI3
aI8
aI2
aI14
aI4
aI3
aI33
aI31
aI34
aI31
aI33
aI21
aI34
aI20
aI1
aI22
aI1
aI20
aI2
aI22
aI1
aI2
aI14
aI34
aa(lp205
I32
aI29
aI34
aI20
aI1
aI7
aI6
aI1
aI11
aI5
aI7
aI17
aI7
aI5
aI7
aI6
aI17
aI7
aI5
aI11
aI1
aI4
aI2
aI31
aI34
aI16
aI34
aI16
aI34
aI27
aI34
aI32
aI33
aI34
aI14
aI2
aI22
aI2
aI20
aI34
aa(lp206
I9
aI34
aI23
aI33
aI30
aI24
aI33
aI23
aI33
aI24
aI28
aI3
aI29
aI34
aI16
aI34
aI14
aI4
aI3
aI8
aI4
aI13
aI4
aI13
aI4
aI14
aI2
aI31
aI9
aI33
aI19
aI33
aI15
aI33
aI16
aI33
aI16
aI33
aI3
aI10
aa(lp207
I6
aI17
aI7
aI1
aI5
aI1
aI6
aI11
aI5
aI1
aI14
aI2
aI31
aI2
aI22
aI2
aI4
aI1
aI5
aI1
aI3
aI29
aI3
aI1
aI9
aI1
aI7
aI17
aI7
aI17
aI7
aI17
aI6
aI11
aI5
aI11
aI6
aI17
aI7
aI1
aa(lp208
I26
aI32
aI1
aI6
aI17
aI7
aI1
aI6
aI7
aI5
aI1
aI5
aI11
aI1
aI20
aI2
aI20
aI34
aI27
aI30
aI33
aI24
aI34
aI16
aI33
aI15
aI34
aI27
aI30
aI33
aI16
aI33
aI24
aI34
aI10
aI3
aI9
aI33
aI34
aI31
aa(lp209
I34
aI33
aI21
aI33
aI31
aI2
aI8
aI1
aI3
aI28
aI3
aI28
aI34
aI32
aI33
aI31
aI34
aI20
aI1
aI3
aI2
aI3
aI8
aI3
aI2
aI20
aI34
aI9
aI31
aI9
aI34
aI30
aI33
aI23
aI33
aI19
aI34
aI10
aI3
aI29
aa(lp210
I27
aI34
aI28
aI24
aI26
aI25
aI28
aI25
aI26
aI24
aI34
aI32
aI29
aI32
aI1
aI20
aI34
aI28
aI34
aI23
aI34
aI14
aI1
aI11
aI5
aI7
aI1
aI8
aI1
aI20
aI34
aI28
aI34
aI27
aI34
aI30
aI34
aI20
aI1
aI4
aa(lp211
I25
aI28
aI34
aI21
aI34
aI28
aI3
aI2
aI3
aI4
aI2
aI14
aI2
aI18
aI2
aI22
aI2
aI20
aI2
aI1
aI7
aI6
aI7
aI17
aI6
aI1
aI9
aI3
aI29
aI32
aI33
aI24
aI28
aI24
aI34
aI16
aI34
aI30
aI33
aI23
aa(lp212
I8
aI3
aI28
aI25
aI32
aI29
aI34
aI10
aI34
aI31
aI34
aI14
aI3
aI2
aI18
aI2
aI20
aI2
aI14
aI4
aI14
aI2
aI4
aI14
aI3
aI1
aI7
aI5
aI7
aI6
aI7
aI1
aI9
aI34
aI15
aI34
aI10
aI34
aI23
aI33
aa(lp213
I29
aI32
aI34
aI31
aI34
aI16
aI34
aI30
aI24
aI34
aI29
aI34
aI15
aI33
aI24
aI34
aI23
aI34
aI20
aI2
aI4
aI13
aI4
aI2
aI22
aI1
aI2
aI3
aI1
aI8
aI3
aI1
aI12
aI1
aI7
aI17
aI7
aI6
aI11
aI6
aa(lp214
I24
aI30
aI34
aI14
aI34
aI9
aI1
aI5
aI11
aI6
aI17
aI6
aI17
aI7
aI5
aI11
aI1
aI12
aI1
aI6
aI17
aI7
aI1
aI20
aI34
aI33
aI30
aI24
aI34
aI32
aI33
aI23
aI34
aI24
aI30
aI24
aI28
aI24
aI30
aI34
aa(lp215
I20
aI1
aI3
aI4
aI8
aI2
aI31
aI2
aI14
aI34
aI16
aI34
aI31
aI9
aI33
aI21
aI34
aI19
aI34
aI20
aI1
aI9
aI31
aI33
aI15
aI34
aI29
aI34
aI20
aI34
aI24
aI34
aI23
aI34
aI16
aI33
aI15
aI33
aI31
aI2
aa(lp216
I15
aI34
aI19
aI33
aI16
aI33
aI21
aI33
aI30
aI27
aI30
aI34
aI15
aI34
aI27
aI30
aI34
aI33
aI30
aI24
aI33
aI15
aI33
aI21
aI33
aI31
aI2
aI14
aI4
aI13
aI4
aI8
aI4
aI1
aI7
aI17
aI6
aI7
aI5
aI7
aa(lp217
I33
aI9
aI33
aI34
aI27
aI34
aI16
aI33
aI19
aI33
aI19
aI34
aI23
aI34
aI15
aI33
aI15
aI33
aI16
aI33
aI23
aI34
aI16
aI34
aI19
aI33
aI19
aI33
aI23
aI34
aI9
aI31
aI2
aI31
aI9
aI31
aI9
aI31
aI2
aI4
aa(lp218
I31
aI34
aI21
aI34
aI16
aI34
aI27
aI34
aI19
aI33
aI16
aI33
aI32
aI33
aI9
aI33
aI9
aI33
aI21
aI34
aI30
aI27
aI34
aI24
aI30
aI27
aI30
aI27
aI34
aI29
aI34
aI19
aI34
aI14
aI2
aI18
aI1
aI14
aI4
aI8
aa(lp219
I5
aI7
aI1
aI20
aI1
aI2
aI14
aI3
aI1
aI11
aI6
aI11
aI6
aI7
aI6
aI11
aI1
aI4
aI14
aI4
aI13
aI1
aI9
aI31
aI2
aI3
aI2
aI1
aI5
aI1
aI8
aI1
aI11
aI1
aI11
aI5
aI11
aI5
aI7
aI6
aa(lp220
I4
aI14
aI34
aI28
aI3
aI14
aI3
aI28
aI25
aI26
aI32
aI26
aI25
aI28
aI24
aI26
aI25
aI28
aI34
aI20
aI1
aI32
aI34
aI16
aI34
aI14
aI1
aI20
aI1
aI2
aI31
aI2
aI20
aI1
aI12
aI1
aI4
aI1
aI12
aI1
aa(lp221
I18
aI2
aI3
aI29
aI32
aI34
aI16
aI33
aI34
aI27
aI30
aI24
aI26
aI32
aI33
aI16
aI33
aI9
aI34
aI28
aI3
aI29
aI3
aI2
aI20
aI2
aI1
aI8
aI1
aI3
aI9
aI1
aI8
aI3
aI10
aI34
aI31
aI9
aI31
aI2
aa(lp222
I23
aI33
aI19
aI33
aI31
aI33
aI24
aI28
aI3
aI4
aI2
aI22
aI1
aI18
aI1
aI14
aI34
aI27
aI34
aI15
aI33
aI24
aI34
aI24
aI26
aI32
aI34
aI14
aI2
aI20
aI2
aI14
aI34
aI30
aI33
aI30
aI27
aI34
aI27
aI30
aa(lp223
I17
aI6
aI17
aI6
aI17
aI6
aI11
aI6
aI1
aI11
aI5
aI7
aI5
aI7
aI17
aI6
aI1
aI8
aI2
aI18
aI2
aI14
aI2
aI20
aI1
aI11
aI6
aI11
aI6
aI17
aI6
aI17
aI6
aI1
aI9
aI1
aI12
aI1
aI4
aI13
aa(lp224
I19
aI34
aI9
aI31
aI34
aI27
aI34
aI32
aI26
aI32
aI34
aI9
aI31
aI2
aI31
aI33
aI31
aI2
aI18
aI1
aI9
aI3
aI10
aI3
aI10
aI3
aI14
aI34
aI15
aI34
aI30
aI33
aI32
aI29
aI34
aI19
aI34
aI29
aI32
aI26
aa(lp225
I10
aI34
aI27
aI30
aI33
aI32
aI26
aI25
aI28
aI3
aI29
aI34
aI29
aI34
aI30
aI24
aI33
aI23
aI34
aI21
aI34
aI20
aI1
aI2
aI4
aI13
aI4
aI13
aI1
aI20
aI2
aI31
aI34
aI10
aI3
aI33
aI15
aI33
aI19
aI34
aa(lp226
I12
aI1
aI3
aI28
aI25
aI28
aI3
aI1
aI20
aI1
aI4
aI8
aI3
aI1
aI4
aI14
aI3
aI29
aI34
aI30
aI24
aI33
aI23
aI34
aI16
aI33
aI30
aI34
aI10
aI3
aI28
aI3
aI29
aI32
aI26
aI24
aI30
aI34
aI30
aI24
aa(lp227
I14
aI1
aI13
aI4
aI2
aI4
aI2
aI1
aI4
aI13
aI4
aI14
aI1
aI3
aI14
aI4
aI1
aI12
aI1
aI5
aI7
aI1
aI12
aI1
aI7
aI5
aI7
aI5
aI7
aI1
aI14
aI1
aI9
aI31
aI9
aI34
aI14
aI2
aI20
aI34
aa(lp228
I16
aI33
aI15
aI34
aI28
aI24
aI26
aI24
aI30
aI33
aI32
aI25
aI26
aI32
aI25
aI26
aI24
aI30
aI33
aI23
aI33
aI19
aI33
aI15
aI34
aI16
aI34
aI24
aI34
aI33
aI15
aI33
aI15
aI34
aI27
aI30
aI27
aI30
aI27
aI30
aa(lp229
I11
aI6
aI1
aI32
aI26
aI24
aI34
aI20
aI1
aI5
aI11
aI1
aI5
aI7
aI17
aI6
aI1
aI18
aI2
aI4
aI8
aI3
aI29
aI34
aI27
aI30
aI33
aI30
aI34
aI28
aI3
aI4
aI14
aI1
aI18
aI1
aI4
aI14
aI3
aI29
aa(lp230
I2
aI3
aI8
aI4
aI1
aI11
aI6
aI1
aI12
aI1
aI13
aI4
aI2
aI8
aI1
aI4
aI14
aI34
aI27
aI30
aI24
aI28
aI25
aI26
aI32
aI26
aI24
aI28
aI25
aI28
aI3
aI4
aI1
aI13
aI4
aI8
aI2
aI4
aI13
aI1
aa(lp231
I30
aI24
aI33
aI21
aI34
aI33
aI30
aI24
aI33
aI19
aI33
aI16
aI33
aI19
aI34
aI10
aI34
aI27
aI30
aI33
aI3
aI2
aI20
aI34
aI20
aI1
aI32
aI26
aI32
aI25
aI26
aI25
aI26
aI25
aI32
aI1
aI14
aI3
aI29
aI34
aa(lp232
I21
aI34
aI9
aI1
aI22
aI2
aI4
aI13
aI1
aI20
aI2
aI1
aI14
aI3
aI9
aI3
aI10
aI3
aI9
aI33
aI21
aI34
aI19
aI34
aI19
aI33
aI9
aI33
aI30
aI34
aI33
aI16
aI33
aI19
aI33
aI3
aI9
aI33
aI32
aI29
aa(lp233
I22
aI1
aI32
aI33
aI32
aI29
aI34
aI14
aI34
aI15
aI34
aI28
aI24
aI30
aI33
aI34
aI23
aI34
aI15
aI33
aI15
aI34
aI32
aI1
aI3
aI9
aI31
aI33
aI30
aI34
aI9
aI33
aI31
aI33
aI16
aI33
aI30
aI24
aI33
aI32
aa(lp234
I13
aI1
aI5
aI1
aI8
aI4
aI13
aI1
aI5
aI1
aI7
aI1
aI18
aI1
aI5
aI7
aI1
aI7
aI5
aI11
aI5
aI7
aI1
aI9
aI1
aI13
aI1
aI22
aI2
aI1
aI7
aI1
aI14
aI34
aI29
aI34
aI16
aI34
aI15
aI33
aa(lp235
I3
aI33
aI32
aI33
aI9
aI31
aI33
aI31
aI2
aI22
aI2
aI18
aI1
aI18
aI1
aI3
aI2
aI4
aI1
aI2
aI8
aI1
aI8
aI4
aI1
aI14
aI2
aI22
aI2
aI18
aI2
aI1
aI8
aI1
aI8
aI1
aI20
aI1
aI14
aI3
aa(lp236
I1
aI12
aI1
aI2
aI4
aI14
aI34
aI19
aI34
aI28
aI24
aI33
aI16
aI33
aI32
aI34
aI28
aI24
aI26
aI24
aI33
aI16
aI33
aI32
aI29
aI32
aI26
aI24
aI34
aI9
aI34
aI20
aI1
aI7
aI5
aI7
aI5
aI11
aI6
aI17
aa(lp237
I7
aI17
aI6
aI1
aI12
aI1
aI8
aI1
aI13
aI1
aI5
aI1
aI9
aI33
aI9
aI31
aI34
aI23
aI34
aI16
aI34
aI14
aI2
aI20
aI2
aI18
aI2
aI31
aI9
aI34
aI19
aI34
aI33
aI15
aI34
aI21
aI33
aI21
aI33
aI3
aa(lp238
I28
aI24
aI30
aI24
aI28
aI25
aI26
aI32
aI25
aI26
aI32
aI26
aI25
aI28
aI24
aI30
aI27
aI34
aI14
aI3
aI28
aI34
aI30
aI24
aI26
aI25
aI26
aI32
aI33
aI19
aI34
aI14
aI4
aI1
aI5
aI1
aI6
aI7
aI6
aI7
aa(lp239
I12
aI1
aI2
aI20
aI34
aI14
aI2
aI20
aI2
aI31
aI2
aI18
aI2
aI4
aI14
aI2
aI4
aI3
aI1
aI13
aI4
aI13
aI1
aI7
aI6
aI11
aI5
aI7
aI17
aI7
aI17
aI6
aI1
aI4
aI14
aI1
aI8
aI4
aI14
aI34
aa(lp240
I6
aI11
aI5
aI11
aI5
aI11
aI5
aI7
aI5
aI11
aI1
aI12
aI1
aI12
aI1
aI8
aI2
aI18
aI1
aI3
aI1
aI12
aI1
aI4
aI2
aI20
aI2
aI3
aI28
aI24
aI26
aI32
aI34
aI19
aI34
aI28
aI25
aI32
aI26
aI25
aa(lp241
I17
aI6
aI17
aI6
aI7
aI1
aI7
aI1
aI7
aI1
aI14
aI2
aI31
aI34
aI9
aI33
aI32
aI34
aI16
aI34
aI32
aI34
aI31
aI34
aI29
aI34
aI32
aI34
aI19
aI33
aI9
aI33
aI3
aI28
aI34
aI28
aI34
aI30
aI34
aI14
aa(lp242
I21
aI33
aI15
aI34
aI19
aI34
aI9
aI31
aI9
aI34
aI30
aI24
aI28
aI34
aI16
aI33
aI19
aI34
aI16
aI33
aI3
aI1
aI6
aI17
aI6
aI11
aI6
aI17
aI7
aI5
aI7
aI6
aI1
aI9
aI1
aI5
aI1
aI18
aI2
aI18
aa(lp243
I19
aI34
aI16
aI34
aI23
aI34
aI28
aI25
aI32
aI26
aI32
aI34
aI30
aI33
aI3
aI1
aI20
aI1
aI12
aI1
aI4
aI3
aI8
aI3
aI8
aI2
aI4
aI13
aI1
aI2
aI14
aI2
aI18
aI2
aI3
aI9
aI34
aI20
aI2
aI3
aa(lp244
I30
aI24
aI33
aI15
aI34
aI31
aI33
aI3
aI28
aI24
aI30
aI27
aI30
aI33
aI30
aI24
aI28
aI25
aI32
aI34
aI9
aI1
aI2
aI1
aI32
aI25
aI26
aI24
aI33
aI32
aI34
aI32
aI33
aI31
aI2
aI14
aI1
aI7
aI5
aI11
aa(lp245
I10
aI34
aI21
aI33
aI30
aI33
aI23
aI33
aI32
aI29
aI3
aI8
aI1
aI2
aI20
aI2
aI14
aI4
aI3
aI9
aI3
aI9
aI33
aI3
aI4
aI8
aI3
aI29
aI3
aI1
aI3
aI33
aI3
aI2
aI3
aI4
aI13
aI1
aI13
aI4
aa(lp246
I29
aI34
aI16
aI34
aI23
aI33
aI9
aI3
aI8
aI1
aI9
aI3
aI9
aI33
aI31
aI9
aI1
aI32
aI26
aI32
aI25
aI32
aI1
aI2
aI3
aI10
aI3
aI8
aI2
aI1
aI20
aI34
aI32
aI26
aI25
aI26
aI24
aI30
aI24
aI26
aa(lp247
I5
aI7
aI1
aI13
aI1
aI3
aI8
aI4
aI13
aI4
aI8
aI2
aI4
aI1
aI22
aI2
aI20
aI1
aI9
aI33
aI32
aI34
aI20
aI2
aI20
aI1
aI5
aI1
aI22
aI2
aI22
aI1
aI22
aI2
aI1
aI32
aI25
aI26
aI24
aI30
aa(lp248
I18
aI2
aI4
aI13
aI1
aI2
aI20
aI2
aI20
aI1
aI8
aI3
aI33
aI23
aI34
aI24
aI30
aI27
aI34
aI30
aI24
aI28
aI24
aI28
aI25
aI28
aI3
aI28
aI3
aI8
aI4
aI13
aI1
aI8
aI2
aI20
aI34
aI30
aI24
aI26
aa(lp249
I32
aI26
aI32
aI29
aI32
aI34
aI23
aI34
aI24
aI28
aI25
aI26
aI24
aI33
aI3
aI9
aI3
aI8
aI2
aI8
aI1
aI11
aI1
aI22
aI1
aI20
aI2
aI8
aI3
aI10
aI34
aI32
aI29
aI3
aI28
aI3
aI28
aI24
aI26
aI24
aa(lp250
I22
aI2
aI22
aI2
aI20
aI1
aI12
aI1
aI22
aI2
aI1
aI13
aI1
aI4
aI13
aI1
aI2
aI22
aI1
aI4
aI14
aI34
aI29
aI3
aI14
aI3
aI29
aI32
aI29
aI3
aI10
aI34
aI10
aI3
aI4
aI2
aI20
aI1
aI9
aI3
aa(lp251
I13
aI4
aI8
aI3
aI33
aI19
aI33
aI9
aI31
aI2
aI8
aI4
aI14
aI4
aI13
aI4
aI1
aI22
aI2
aI22
aI2
aI18
aI2
aI1
aI13
aI4
aI8
aI2
aI8
aI4
aI8
aI2
aI1
aI3
aI1
aI6
aI11
aI1
aI12
aI1
aa(lp252
I9
aI3
aI28
aI24
aI30
aI27
aI34
aI30
aI24
aI28
aI3
aI8
aI2
aI3
aI10
aI34
aI27
aI34
aI20
aI1
aI2
aI14
aI4
aI8
aI3
aI9
aI34
aI31
aI34
aI9
aI31
aI34
aI16
aI33
aI23
aI34
aI23
aI33
aI32
aI33
aa(lp253
I34
aI29
aI34
aI28
aI25
aI26
aI24
aI28
aI34
aI14
aI4
aI2
aI8
aI3
aI9
aI34
aI33
aI19
aI33
aI24
aI30
aI34
aI27
aI34
aI15
aI33
aI3
aI4
aI2
aI4
aI8
aI3
aI33
aI30
aI33
aI16
aI34
aI30
aI34
aI29
aa(lp254
I11
aI6
aI17
aI7
aI5
aI1
aI32
aI1
aI9
aI1
aI11
aI5
aI1
aI2
aI4
aI8
aI4
aI1
aI3
aI9
aI34
aI30
aI33
aI16
aI34
aI27
aI30
aI27
aI30
aI24
aI34
aI21
aI34
aI9
aI3
aI8
aI3
aI10
aI34
aI15
aa(lp255
I8
aI3
aI8
aI3
aI28
aI24
aI28
aI25
aI32
aI29
aI34
aI29
aI32
aI29
aI3
aI14
aI4
aI1
aI2
aI20
aI34
aI9
aI31
aI33
aI32
aI26
aI25
aI28
aI25
aI26
aI25
aI26
aI24
aI33
aI19
aI34
aI29
aI3
aI2
aI22
aa(lp256
I14
aI2
aI1
aI32
aI33
aI16
aI33
aI23
aI33
aI3
aI10
aI3
aI28
aI25
aI26
aI25
aI26
aI24
aI28
aI24
aI30
aI33
aI31
aI9
aI3
aI9
aI31
aI33
aI19
aI33
aI30
aI24
aI33
aI3
aI29
aI3
aI2
aI22
aI1
aI6
aa(lp257
I16
aI34
aI31
aI9
aI1
aI5
aI7
aI5
aI11
aI5
aI7
aI1
aI12
aI1
aI7
aI5
aI11
aI6
aI17
aI6
aI7
aI17
aI7
aI17
aI7
aI1
aI8
aI3
aI29
aI32
aI33
aI3
aI4
aI13
aI1
aI12
aI1
aI9
aI31
aI34
aa(lp258
I23
aI34
aI9
aI1
aI13
aI1
aI2
aI4
aI14
aI34
aI24
aI34
aI24
aI26
aI25
aI28
aI24
aI33
aI16
aI33
aI9
aI3
aI10
aI34
aI9
aI31
aI34
aI23
aI33
aI34
aI32
aI34
aI27
aI30
aI27
aI34
aI29
aI32
aI34
aI19
aa(lp259
I3
aI14
aI4
aI13
aI4
aI3
aI9
aI3
aI4
aI8
aI3
aI8
aI3
aI8
aI1
aI32
aI33
aI30
aI24
aI33
aI19
aI34
aI32
aI25
aI26
aI32
aI29
aI3
aI9
aI34
aI20
aI34
aI23
aI34
aI28
aI34
aI16
aI34
aI33
aI32
aa(lp260
I2
aI22
aI2
aI1
aI14
aI34
aI24
aI26
aI25
aI32
aI29
aI3
aI10
aI3
aI28
aI3
aI29
aI3
aI33
aI32
aI34
aI27
aI34
aI29
aI3
aI28
aI34
aI23
aI33
aI19
aI34
aI23
aI33
aI31
aI9
aI1
aI13
aI4
aI13
aI4
aa(lp261
I1
aI12
aI1
aI2
aI4
aI2
aI14
aI3
aI9
aI1
aI8
aI2
aI22
aI2
aI1
aI18
aI2
aI8
aI3
aI14
aI1
aI18
aI2
aI22
aI1
aI9
aI3
aI29
aI3
aI2
aI14
aI4
aI8
aI1
aI5
aI1
aI13
aI1
aI32
aI25
aa(lp262
I24
aI30
aI33
aI30
aI34
aI31
aI9
aI3
aI8
aI3
aI1
aI6
aI17
aI6
aI7
aI5
aI11
aI5
aI7
aI5
aI7
aI1
aI18
aI2
aI18
aI1
aI6
aI11
aI1
aI22
aI2
aI22
aI1
aI3
aI9
aI33
aI15
aI33
aI19
aI34
aa(lp263
I28
aI24
aI34
aI30
aI24
aI28
aI25
aI32
aI1
aI11
aI5
aI1
aI7
aI5
aI7
aI17
aI6
aI17
aI7
aI5
aI11
aI5
aI1
aI12
aI1
aI22
aI1
aI4
aI14
aI4
aI8
aI4
aI14
aI4
aI2
aI22
aI1
aI6
aI7
aI17
aa(lp264
I20
aI34
aI15
aI33
aI23
aI34
aI15
aI34
aI16
aI34
aI21
aI33
aI32
aI34
aI23
aI34
aI19
aI34
aI16
aI34
aI32
aI29
aI34
aI30
aI24
aI34
aI29
aI32
aI26
aI32
aI26
aI24
aI30
aI24
aI30
aI24
aI26
aI32
aI29
aI3
aa(lp265
I7
aI17
aI7
aI5
aI7
aI5
aI7
aI17
aI7
aI5
aI7
aI6
aI11
aI6
aI11
aI5
aI7
aI5
aI7
aI1
aI8
aI3
aI9
aI31
aI34
aI24
aI26
aI32
aI25
aI28
aI34
aI31
aI9
aI3
aI8
aI1
aI18
aI1
aI2
aI8
aa(lp266
I27
aI30
aI33
aI30
aI24
aI34
aI16
aI34
aI32
aI26
aI25
aI28
aI25
aI26
aI24
aI34
aI21
aI33
aI31
aI9
aI33
aI34
aI24
aI30
aI33
aI3
aI29
aI3
aI4
aI2
aI18
aI1
aI20
aI34
aI23
aI33
aI32
aI25
aI28
aI25
aa(lp267
I15
aI34
aI29
aI3
aI2
aI4
aI13
aI1
aI3
aI2
aI22
aI2
aI4
aI2
aI14
aI2
aI8
aI3
aI28
aI34
aI21
aI34
aI9
aI33
aI16
aI33
aI23
aI33
aI15
aI34
aI9
aI1
aI32
aI1
aI11
aI5
aI11
aI1
aI5
aI1
aa(lp268
I4
aI2
aI14
aI1
aI11
aI1
aI12
aI1
aI4
aI2
aI1
aI32
aI34
aI9
aI33
aI21
aI34
aI31
aI2
aI20
aI34
aI23
aI34
aI23
aI34
aI23
aI34
aI24
aI30
aI24
aI28
aI34
aI10
aI3
aI1
aI32
aI1
aI2
aI22
aI2
aa(lp269
I26
aI24
aI26
aI24
aI33
aI31
aI33
aI3
aI29
aI34
aI19
aI33
aI30
aI27
aI34
aI27
aI30
aI33
aI23
aI34
aI21
aI34
aI16
aI33
aI34
aI19
aI34
aI16
aI33
aI24
aI30
aI33
aI23
aI34
aI10
aI34
aI15
aI33
aI21
aI33
aa(lp270
I33
aI34
aI16
aI33
aI9
aI3
aI2
aI14
aI34
aI19
aI34
aI9
aI31
aI33
aI34
aI28
aI34
aI10
aI3
aI28
aI25
aI26
aI32
aI29
aI3
aI9
aI33
aI21
aI33
aI21
aI34
aI16
aI34
aI23
aI34
aI20
aI34
aI32
aI33
aI30
aa(lp271
I31
aI33
aI3
aI10
aI3
aI8
aI1
aI9
aI1
aI20
aI1
aI20
aI1
aI32
aI29
aI3
aI1
aI32
aI1
aI13
aI1
aI32
aI33
aI19
aI34
aI16
aI33
aI30
aI34
aI33
aI24
aI26
aI32
aI33
aI30
aI24
aI33
aI19
aI33
aI9
aa(lp272
I25
aI28
aI25
aI32
aI34
aI14
aI2
aI14
aI2
aI8
aI1
aI22
aI1
aI22
aI1
aI7
aI17
aI7
aI6
aI7
aI17
aI7
aI1
aI13
aI4
aI14
aI2
aI31
aI2
aI4
aI1
aI3
aI10
aI34
aI14
aI4
aI14
aI4
aI2
aI18
aa(lp273
I2
aI8
aI4
aI1
aI32
aI29
aI3
aI14
aI34
aI32
aI34
aI31
aI34
aI23
aI34
aI29
aI3
aI4
aI2
aI22
aI2
aI22
aI2
aI1
aI3
aI8
aI2
aI22
aI1
aI7
aI1
aI32
aI26
aI24
aI30
aI24
aI28
aI24
aI30
aI33
aa(lp274
I15
aI33
aI9
aI33
aI19
aI33
aI19
aI34
aI15
aI33
aI34
aI20
aI34
aI20
aI1
aI3
aI4
aI14
aI3
aI33
aI32
aI29
aI3
aI2
aI20
aI1
aI9
aI31
aI33
aI15
aI34
aI33
aI30
aI24
aI34
aI14
aI2
aI8
aI3
aI8
aa(lp275
I22
aI1
aI4
aI3
aI14
aI4
aI14
aI4
aI8
aI1
aI18
aI1
aI5
aI11
aI1
aI9
aI34
aI15
aI33
aI9
aI33
aI24
aI33
aI30
aI33
aI3
aI33
aI30
aI33
aI23
aI34
aI21
aI34
aI28
aI24
aI33
aI31
aI33
aI24
aI28
aa(lp276
I7
aI1
aI20
aI1
aI3
aI2
aI14
aI3
aI9
aI33
aI30
aI24
aI28
aI25
aI28
aI24
aI30
aI34
aI31
aI33
aI32
aI33
aI23
aI34
aI19
aI34
aI21
aI34
aI30
aI34
aI30
aI27
aI34
aI10
aI34
aI30
aI34
aI27
aI30
aI24
aa(lp277
I5
aI1
aI13
aI4
aI8
aI2
aI8
aI4
aI8
aI2
aI31
aI9
aI1
aI22
aI1
aI3
aI29
aI3
aI14
aI4
aI13
aI1
aI9
aI3
aI8
aI3
aI2
aI4
aI8
aI1
aI22
aI2
aI31
aI2
aI20
aI34
aI19
aI34
aI28
aI3
aa(lp278
I19
aI34
aI20
aI1
aI22
aI2
aI4
aI14
aI2
aI22
aI2
aI8
aI1
aI9
aI31
aI2
aI3
aI10
aI3
aI9
aI1
aI13
aI4
aI13
aI1
aI13
aI1
aI3
aI33
aI16
aI33
aI9
aI34
aI24
aI26
aI32
aI33
aI24
aI33
aI19
aa(lp279
I20
aI1
aI14
aI34
aI19
aI33
aI24
aI34
aI33
aI9
aI33
aI3
aI10
aI3
aI2
aI1
aI18
aI2
aI18
aI1
aI6
aI1
aI7
aI6
aI11
aI5
aI7
aI1
aI2
aI4
aI14
aI34
aI32
aI29
aI3
aI9
aI1
aI9
aI3
aI2
aa(lp280
I34
aI19
aI33
aI32
aI26
aI32
aI1
aI12
aI1
aI20
aI2
aI3
aI33
aI16
aI34
aI15
aI33
aI31
aI9
aI31
aI2
aI4
aI3
aI4
aI8
aI2
aI20
aI34
aI16
aI34
aI31
aI9
aI3
aI8
aI1
aI18
aI2
aI31
aI9
aI3
aa(lp281
I12
aI1
aI13
aI4
aI14
aI2
aI4
aI13
aI1
aI12
aI1
aI8
aI3
aI14
aI3
aI29
aI32
aI25
aI32
aI33
aI31
aI9
aI34
aI33
aI16
aI34
aI15
aI34
aI24
aI30
aI24
aI34
aI29
aI32
aI26
aI32
aI1
aI20
aI34
aI29
aa(lp282
I16
aI34
aI24
aI28
aI3
aI33
aI9
aI31
aI9
aI33
aI3
aI28
aI34
aI15
aI33
aI23
aI34
aI14
aI3
aI4
aI1
aI5
aI7
aI5
aI1
aI14
aI2
aI1
aI2
aI1
aI11
aI6
aI17
aI7
aI6
aI11
aI6
aI7
aI1
aI3
aa(lp283
I6
aI7
aI17
aI7
aI5
aI11
aI1
aI2
aI20
aI34
aI32
aI33
aI3
aI10
aI3
aI8
aI3
aI29
aI3
aI2
aI14
aI1
aI32
aI1
aI11
aI5
aI11
aI6
aI7
aI17
aI6
aI1
aI18
aI2
aI8
aI2
aI4
aI2
aI8
aI2
aa(lp284
I29
aI32
aI25
aI28
aI25
aI26
aI32
aI1
aI2
aI22
aI1
aI4
aI2
aI14
aI2
aI3
aI2
aI31
aI33
aI30
aI24
aI30
aI33
aI24
aI26
aI32
aI29
aI3
aI9
aI31
aI34
aI21
aI33
aI16
aI33
aI31
aI33
aI21
aI33
aI19
aa(lp285
I24
aI33
aI23
aI34
aI30
aI24
aI34
aI24
aI30
aI27
aI34
aI31
aI34
aI23
aI33
aI19
aI34
aI32
aI34
aI24
aI26
aI32
aI34
aI21
aI34
aI27
aI34
aI30
aI27
aI30
aI27
aI30
aI33
aI31
aI9
aI31
aI33
aI23
aI33
aI3
aa(lp286
I18
aI1
aI14
aI3
aI8
aI1
aI12
aI1
aI4
aI8
aI3
aI9
aI3
aI14
aI2
aI14
aI1
aI32
aI34
aI9
aI3
aI2
aI20
aI1
aI5
aI1
aI9
aI31
aI34
aI16
aI34
aI19
aI34
aI10
aI34
aI31
aI9
aI34
aI33
aI3
aa(lp287
I3
aI2
aI20
aI2
aI8
aI4
aI8
aI1
aI20
aI2
aI3
aI4
aI8
aI4
aI2
aI31
aI9
aI1
aI6
aI11
aI5
aI1
aI12
aI1
aI4
aI2
aI8
aI2
aI18
aI2
aI8
aI3
aI28
aI3
aI2
aI20
aI1
aI22
aI2
aI4
aa(lp288
I14
aI3
aI1
aI11
aI1
aI11
aI5
aI1
aI9
aI34
aI29
aI3
aI9
aI34
aI30
aI34
aI19
aI33
aI9
aI1
aI4
aI14
aI4
aI1
aI2
aI31
aI2
aI3
aI2
aI1
aI2
aI18
aI2
aI4
aI13
aI4
aI14
aI1
aI8
aI3
aa(lp289
I28
aI24
aI34
aI10
aI3
aI14
aI1
aI12
aI1
aI5
aI11
aI5
aI11
aI1
aI6
aI7
aI5
aI1
aI11
aI5
aI11
aI5
aI1
aI8
aI4
aI13
aI4
aI1
aI22
aI2
aI20
aI34
aI32
aI1
aI5
aI1
aI12
aI1
aI7
aI5
aa(lp290
I8
aI3
aI2
aI31
aI33
aI23
aI34
aI9
aI3
aI1
aI14
aI2
aI31
aI2
aI1
aI2
aI3
aI10
aI34
aI28
aI24
aI26
aI25
aI26
aI25
aI26
aI32
aI26
aI32
aI25
aI32
aI1
aI13
aI4
aI13
aI4
aI1
aI32
aI1
aI14
aa(lp291
I10
aI3
aI28
aI24
aI28
aI34
aI9
aI3
aI9
aI31
aI34
aI16
aI34
aI19
aI33
aI9
aI1
aI2
aI1
aI14
aI34
aI15
aI33
aI24
aI33
aI9
aI1
aI22
aI1
aI4
aI2
aI4
aI8
aI4
aI3
aI33
aI21
aI33
aI15
aI34
aa(lp292
I11
aI5
aI7
aI1
aI3
aI10
aI3
aI10
aI34
aI10
aI34
aI9
aI3
aI4
aI14
aI34
aI28
aI25
aI32
aI26
aI25
aI26
aI25
aI28
aI25
aI28
aI25
aI28
aI3
aI1
aI2
aI3
aI29
aI3
aI14
aI1
aI11
aI6
aI17
aI6
aa(lp293
I32
aI34
aI19
aI33
aI3
aI10
aI3
aI29
aI3
aI9
aI3
aI1
aI2
aI8
aI3
aI2
aI4
aI1
aI6
aI11
aI1
aI9
aI31
aI33
aI24
aI28
aI25
aI32
aI33
aI24
aI33
aI24
aI33
aI9
aI33
aI31
aI33
aI32
aI34
aI31
aa(lp294
I21
aI34
aI30
aI34
aI31
aI2
aI18
aI1
aI9
aI34
aI33
aI24
aI33
aI16
aI34
aI23
aI34
aI20
aI34
aI14
aI2
aI4
aI2
aI31
aI9
aI34
aI15
aI33
aI3
aI1
aI3
aI33
aI23
aI34
aI10
aI34
aI23
aI34
aI21
aI33
aa(lp295
I23
aI34
aI30
aI24
aI28
aI24
aI28
aI24
aI26
aI24
aI26
aI25
aI32
aI1
aI7
aI17
aI7
aI6
aI11
aI1
aI13
aI1
aI11
aI1
aI9
aI33
aI16
aI34
aI33
aI19
aI33
aI24
aI28
aI24
aI30
aI27
aI34
aI16
aI33
aI24
aa(lp296
I33
aI9
aI33
aI30
aI24
aI28
aI24
aI34
aI33
aI31
aI2
aI31
aI9
aI1
aI9
aI1
aI22
aI1
aI14
aI1
aI6
aI17
aI7
aI17
aI6
aI1
aI9
aI33
aI16
aI33
aI32
aI33
aI15
aI33
aI21
aI34
aI23
aI34
aI27
aI30
aa(lp297
I27
aI30
aI33
aI19
aI34
aI32
aI33
aI32
aI1
aI20
aI34
aI30
aI27
aI30
aI27
aI34
aI32
aI26
aI25
aI26
aI32
aI1
aI11
aI5
aI11
aI6
aI7
aI1
aI20
aI1
aI7
aI17
aI7
aI5
aI7
aI5
aI1
aI2
aI22
aI1
aa(lp298
I26
aI24
aI30
aI27
aI30
aI33
aI23
aI33
aI21
aI33
aI32
aI25
aI28
aI24
aI34
aI10
aI3
aI2
aI14
aI34
aI33
aI30
aI27
aI34
aI21
aI33
aI23
aI33
aI24
aI26
aI32
aI29
aI3
aI9
aI1
aI14
aI34
aI16
aI34
aI31
aa(lp299
I17
aI6
aI11
aI6
aI17
aI6
aI11
aI1
aI32
aI33
aI23
aI34
aI28
aI25
aI28
aI34
aI29
aI32
aI33
aI32
aI33
aI15
aI33
aI31
aI34
aI29
aI3
aI29
aI34
aI23
aI33
aI15
aI34
aI29
aI3
aI10
aI34
aI23
aI34
aI27
aa(lp300
I13
aI1
aI6
aI11
aI6
aI7
aI6
aI17
aI7
aI5
aI1
aI22
aI2
aI31
aI2
aI18
aI1
aI4
aI13
aI1
aI8
aI2
aI20
aI1
aI12
aI1
aI12
aI1
aI2
aI14
aI4
aI2
aI22
aI1
aI2
aI3
aI8
aI3
aI4
aI13
aa(lp301
I30
aI27
aI30
aI34
aI10
aI3
aI2
aI20
aI34
aI30
aI34
aI14
aI34
aI28
aI3
aI33
aI9
aI1
aI13
aI1
aI3
aI33
aI32
aI25
aI26
aI25
aI28
aI34
aI24
aI33
aI34
aI15
aI33
aI16
aI34
aI28
aI24
aI26
aI25
aI26
aa(lp302
I25
aI26
aI24
aI30
aI34
aI10
aI34
aI23
aI34
aI9
aI34
aI10
aI3
aI2
aI20
aI1
aI5
aI1
aI20
aI1
aI6
aI17
aI6
aI11
aI6
aI17
aI7
aI1
aI20
aI2
aI18
aI1
aI12
aI1
aI7
aI6
aI7
aI1
aI13
aI4
aa(lp303
I1
aI20
aI2
aI20
aI34
aI9
aI1
aI8
aI3
aI8
aI2
aI14
aI1
aI20
aI34
aI29
aI32
aI29
aI34
aI29
aI32
aI1
aI5
aI1
aI11
aI6
aI1
aI14
aI3
aI10
aI3
aI1
aI22
aI2
aI14
aI1
aI12
aI1
aI11
aI5
aa(lp304
I4
aI1
aI20
aI1
aI5
aI11
aI5
aI11
aI1
aI9
aI33
aI30
aI34
aI31
aI34
aI30
aI27
aI30
aI34
aI10
aI3
aI10
aI3
aI10
aI34
aI10
aI3
aI4
aI14
aI4
aI13
aI4
aI8
aI4
aI8
aI3
aI1
aI7
aI6
aI1
aa(lp305
I9
aI1
aI32
aI25
aI28
aI25
aI32
aI34
aI23
aI33
aI9
aI1
aI3
aI2
aI31
aI34
aI14
aI3
aI28
aI34
aI14
aI4
aI2
aI31
aI33
aI15
aI34
aI9
aI1
aI6
aI11
aI6
aI7
aI6
aI17
aI7
aI1
aI20
aI2
aI1
aa(lp306
I31
aI33
aI15
aI33
aI15
aI33
aI16
aI33
aI9
aI34
aI31
aI34
aI28
aI25
aI26
aI32
aI25
aI28
aI3
aI8
aI2
aI18
aI1
aI20
aI34
aI28
aI24
aI28
aI25
aI32
aI33
aI24
aI34
aI30
aI33
aI15
aI33
aI32
aI26
aI24
aa(lp307
I21
aI34
aI21
aI33
aI9
aI1
aI6
aI7
aI1
aI32
aI29
aI32
aI25
aI28
aI25
aI26
aI25
aI32
aI25
aI26
aI24
aI33
aI24
aI34
aI32
aI29
aI34
aI24
aI33
aI23
aI33
aI9
aI34
aI10
aI3
aI2
aI22
aI2
aI4
aI14
aa(lp308
I28
aI24
aI34
aI28
aI34
aI9
aI33
aI3
aI8
aI1
aI4
aI3
aI28
aI34
aI33
aI16
aI33
aI3
aI4
aI1
aI32
aI1
aI8
aI4
aI14
aI2
aI3
aI4
aI8
aI2
aI20
aI2
aI3
aI10
aI3
aI29
aI3
aI8
aI2
aI4
aa(lp309
I15
aI33
aI21
aI33
aI21
aI34
aI31
aI33
aI3
aI1
aI22
aI1
aI12
aI1
aI4
aI14
aI4
aI2
aI20
aI2
aI8
aI2
aI31
aI34
aI16
aI33
aI23
aI34
aI9
aI1
aI9
aI1
aI12
aI1
aI14
aI34
aI33
aI24
aI30
aI33
aa(lp310
I18
aI2
aI18
aI2
aI20
aI34
aI21
aI34
aI30
aI34
aI28
aI3
aI10
aI3
aI4
aI1
aI14
aI1
aI9
aI1
aI8
aI4
aI8
aI3
aI2
aI8
aI4
aI14
aI4
aI3
aI29
aI34
aI30
aI33
aI30
aI27
aI34
aI14
aI2
aI8
aa(lp311
I30
aI24
aI34
aI20
aI2
aI18
aI2
aI3
aI28
aI25
aI32
aI1
aI3
aI8
aI4
aI3
aI2
aI4
aI3
aI8
aI1
aI3
aI8
aI2
aI20
aI2
aI14
aI2
aI18
aI2
aI22
aI1
aI32
aI34
aI28
aI3
aI29
aI34
aI16
aI34
aa(lp312
I8
aI1
aI18
aI1
aI7
aI6
aI17
aI7
aI1
aI9
aI3
aI28
aI3
aI2
aI31
aI33
aI34
aI27
aI30
aI34
aI15
aI34
aI20
aI34
aI31
aI33
aI31
aI34
aI27
aI34
aI29
aI34
aI30
aI34
aI31
aI34
aI27
aI30
aI24
aI28
aa(lp313
I16
aI34
aI30
aI24
aI28
aI3
aI10
aI3
aI2
aI4
aI14
aI1
aI18
aI2
aI1
aI18
aI2
aI1
aI12
aI1
aI18
aI2
aI8
aI4
aI13
aI1
aI20
aI34
aI30
aI27
aI30
aI34
aI32
aI34
aI28
aI24
aI30
aI34
aI23
aI33
aa(lp314
I22
aI2
aI22
aI1
aI32
aI1
aI8
aI2
aI8
aI1
aI18
aI2
aI3
aI10
aI3
aI33
aI19
aI34
aI33
aI9
aI34
aI24
aI30
aI24
aI26
aI25
aI32
aI1
aI32
aI1
aI2
aI1
aI7
aI5
aI11
aI6
aI17
aI6
aI17
aI6
aa(lp315
I26
aI32
aI26
aI24
aI26
aI32
aI29
aI3
aI28
aI34
aI16
aI33
aI30
aI27
aI30
aI24
aI30
aI33
aI32
aI25
aI32
aI26
aI24
aI34
aI24
aI26
aI24
aI34
aI15
aI34
aI14
aI1
aI2
aI18
aI1
aI11
aI5
aI7
aI5
aI7
aa(lp316
I12
aI1
aI13
aI4
aI14
aI2
aI4
aI3
aI1
aI20
aI34
aI20
aI2
aI4
aI8
aI1
aI22
aI1
aI2
aI22
aI1
aI9
aI31
aI2
aI31
aI2
aI14
aI2
aI31
aI9
aI3
aI2
aI20
aI34
aI10
aI34
aI31
aI33
aI24
aI26
aa(lp317
I29
aI3
aI28
aI24
aI30
aI34
aI32
aI1
aI9
aI1
aI13
aI1
aI32
aI29
aI32
aI34
aI19
aI33
aI31
aI34
aI28
aI3
aI29
aI34
aI19
aI34
aI10
aI3
aI28
aI34
aI16
aI34
aI23
aI34
aI16
aI33
aI15
aI33
aI24
aI34
aa(lp318
I13
aI4
aI3
aI10
aI3
aI28
aI25
aI28
aI25
aI26
aI32
aI26
aI25
aI28
aI24
aI34
aI10
aI34
aI16
aI33
aI23
aI34
aI19
aI33
aI34
aI24
aI34
aI28
aI25
aI32
aI33
aI21
aI33
aI31
aI34
aI30
aI34
aI19
aI34
aI10
aa(lp319
I3
aI2
aI3
aI33
aI3
aI14
aI34
aI27
aI30
aI33
aI31
aI9
aI3
aI33
aI21
aI33
aI15
aI33
aI16
aI33
aI16
aI34
aI14
aI34
aI9
aI33
aI34
aI9
aI1
aI9
aI1
aI18
aI1
aI8
aI1
aI14
aI34
aI16
aI34
aI10
aa(lp320
I4
aI14
aI34
aI30
aI34
aI16
aI33
aI24
aI26
aI25
aI26
aI32
aI26
aI32
aI29
aI3
aI9
aI31
aI2
aI1
aI18
aI1
aI20
aI1
aI22
aI2
aI20
aI34
aI23
aI34
aI9
aI33
aI24
aI33
aI3
aI8
aI3
aI2
aI3
aI29
aa(lp321
I10
aI3
aI28
aI3
aI8
aI2
aI22
aI2
aI14
aI1
aI4
aI14
aI4
aI8
aI3
aI8
aI2
aI14
aI3
aI1
aI13
aI1
aI4
aI2
aI4
aI8
aI4
aI3
aI2
aI8
aI3
aI2
aI18
aI1
aI7
aI6
aI17
aI7
aI1
aI32
aa(lp322
I14
aI2
aI22
aI1
aI18
aI2
aI1
aI5
aI11
aI1
aI9
aI34
aI27
aI30
aI33
aI23
aI33
aI30
aI33
aI15
aI34
aI24
aI28
aI25
aI28
aI24
aI28
aI25
aI32
aI26
aI24
aI34
aI31
aI9
aI1
aI13
aI4
aI2
aI20
aI2
aa(lp323
I20
aI1
aI13
aI1
aI18
aI1
aI4
aI3
aI28
aI34
aI24
aI33
aI15
aI33
aI3
aI4
aI13
aI4
aI2
aI3
aI8
aI4
aI8
aI4
aI1
aI6
aI1
aI9
aI34
aI21
aI33
aI3
aI29
aI3
aI33
aI9
aI3
aI9
aI1
aI18
aa(lp324
I25
aI32
aI25
aI26
aI32
aI33
aI19
aI33
aI15
aI33
aI23
aI33
aI34
aI15
aI33
aI24
aI28
aI34
aI31
aI9
aI31
aI9
aI31
aI9
aI34
aI24
aI26
aI25
aI28
aI25
aI26
aI25
aI28
aI34
aI19
aI34
aI19
aI34
aI15
aI34
aa(lp325
I6
aI1
aI22
aI1
aI11
aI1
aI13
aI4
aI2
aI8
aI1
aI8
aI3
aI2
aI14
aI34
aI15
aI34
aI21
aI34
aI21
aI34
aI29
aI34
aI30
aI27
aI30
aI34
aI23
aI33
aI16
aI33
aI24
aI33
aI24
aI26
aI25
aI28
aI34
aI15
aa(lp326
I31
aI34
aI19
aI34
aI20
aI2
aI14
aI1
aI3
aI29
aI32
aI25
aI32
aI34
aI32
aI34
aI24
aI30
aI27
aI34
aI21
aI34
aI27
aI30
aI34
aI9
aI1
aI14
aI2
aI4
aI8
aI2
aI14
aI1
aI32
aI25
aI28
aI24
aI33
aI15
aa(lp327
I32
aI29
aI32
aI25
aI28
aI3
aI8
aI2
aI14
aI4
aI13
aI4
aI2
aI31
aI34
aI9
aI3
aI28
aI24
aI33
aI16
aI34
aI30
aI27
aI30
aI34
aI15
aI34
aI24
aI33
aI9
aI3
aI4
aI3
aI10
aI3
aI28
aI34
aI28
aI25
aa(lp328
I2
aI8
aI3
aI8
aI3
aI4
aI2
aI18
aI2
aI18
aI2
aI22
aI2
aI8
aI3
aI9
aI33
aI19
aI34
aI28
aI25
aI32
aI33
aI23
aI33
aI3
aI9
aI33
aI34
aI9
aI31
aI34
aI10
aI3
aI14
aI4
aI3
aI9
aI31
aI2
aa(lp329
I11
aI5
aI1
aI13
aI4
aI2
aI1
aI18
aI1
aI32
aI1
aI20
aI2
aI3
aI4
aI14
aI1
aI7
aI6
aI7
aI5
aI7
aI5
aI1
aI4
aI13
aI4
aI14
aI4
aI8
aI3
aI1
aI6
aI11
aI6
aI1
aI3
aI14
aI3
aI10
aa(lp330
I17
aI6
aI17
aI6
aI1
aI12
aI1
aI12
aI1
aI7
aI5
aI1
aI22
aI2
aI22
aI1
aI8
aI1
aI2
aI14
aI4
aI14
aI34
aI16
aI34
aI14
aI1
aI12
aI1
aI7
aI6
aI11
aI1
aI2
aI18
aI2
aI18
aI2
aI14
aI1
aa(lp331
I5
aI7
aI1
aI14
aI4
aI3
aI29
aI3
aI33
aI24
aI34
aI24
aI30
aI34
aI19
aI34
aI33
aI15
aI33
aI34
aI16
aI33
aI24
aI33
aI31
aI34
aI10
aI3
aI8
aI4
aI8
aI2
aI8
aI2
aI8
aI3
aI10
aI34
aI21
aI33
aa(lp332
I24
aI26
aI32
aI33
aI32
aI1
aI6
aI7
aI5
aI7
aI17
aI6
aI17
aI7
aI5
aI1
aI3
aI10
aI34
aI31
aI9
aI33
aI15
aI33
aI19
aI34
aI31
aI33
aI24
aI34
aI28
aI3
aI33
aI24
aI28
aI3
aI8
aI3
aI1
aI14
aa(lp333
I19
aI33
aI19
aI34
aI9
aI1
aI20
aI34
aI14
aI34
aI27
aI34
aI33
aI23
aI34
aI14
aI4
aI14
aI2
aI31
aI33
aI15
aI33
aI3
aI28
aI24
aI34
aI28
aI3
aI8
aI3
aI29
aI3
aI10
aI34
aI28
aI3
aI4
aI13
aI4
aa(lp334
I23
aI34
aI9
aI1
aI8
aI1
aI13
aI4
aI8
aI3
aI8
aI2
aI22
aI1
aI5
aI7
aI17
aI6
aI1
aI6
aI7
aI1
aI6
aI11
aI5
aI7
aI6
aI1
aI4
aI2
aI31
aI9
aI3
aI28
aI34
aI14
aI34
aI30
aI27
aI30
aa(lp335
I27
aI30
aI34
aI15
aI33
aI31
aI33
aI30
aI27
aI30
aI34
aI16
aI34
aI19
aI33
aI23
aI34
aI30
aI33
aI3
aI8
aI3
aI10
aI34
aI33
aI30
aI24
aI33
aI9
aI3
aI1
aI18
aI2
aI20
aI1
aI4
aI2
aI14
aI1
aI3
aa(lp336
I1
aI11
aI1
aI32
aI33
aI34
aI30
aI27
aI34
aI15
aI33
aI16
aI34
aI14
aI34
aI10
aI34
aI28
aI25
aI32
aI29
aI34
aI14
aI2
aI14
aI4
aI8
aI3
aI14
aI2
aI31
aI34
aI19
aI33
aI19
aI33
aI23
aI34
aI15
aI34
aa(lp337
I34
aI27
aI30
aI27
aI30
aI27
aI34
aI28
aI34
aI28
aI34
aI29
aI34
aI21
aI33
aI21
aI34
aI21
aI33
aI34
aI9
aI3
aI10
aI34
aI21
aI34
aI32
aI25
aI26
aI25
aI28
aI24
aI28
aI3
aI4
aI3
aI2
aI20
aI34
aI16
aa(lp338
I9
aI1
aI12
aI1
aI7
aI5
aI7
aI17
aI6
aI7
aI1
aI32
aI34
aI23
aI33
aI19
aI33
aI3
aI1
aI6
aI1
aI7
aI17
aI7
aI1
aI14
aI2
aI8
aI4
aI3
aI10
aI34
aI30
aI33
aI3
aI4
aI13
aI1
aI11
aI6
aa(lp339
I33
aI21
aI33
aI30
aI27
aI34
aI20
aI1
aI20
aI34
aI21
aI33
aI21
aI34
aI16
aI34
aI21
aI33
aI19
aI33
aI3
aI8
aI4
aI8
aI1
aI13
aI1
aI5
aI7
aI17
aI7
aI5
aI11
aI6
aI11
aI1
aI2
aI22
aI1
aI4
aa(lp340
I7
aI6
aI11
aI5
aI7
aI1
aI12
aI1
aI9
aI1
aI11
aI1
aI20
aI34
aI9
aI33
aI32
aI33
aI3
aI14
aI1
aI4
aI8
aI3
aI1
aI12
aI1
aI13
aI4
aI2
aI18
aI1
aI20
aI1
aI20
aI1
aI12
aI1
aI6
aI11
aa.